
build/freertos_print.elf:     file format elf32-littlearm


Disassembly of section .isr_vector:

08000000 <g_pfnVectors>:
 8000000:	20080000 	andcs	r0, r8, r0
 8000004:	080030ed 	stmdaeq	r0, {r0, r2, r3, r5, r6, r7, ip, sp}
 8000008:	08000cf9 	stmdaeq	r0, {r0, r3, r4, r5, r6, r7, sl, fp}
 800000c:	08000cfb 	stmdaeq	r0, {r0, r1, r3, r4, r5, r6, r7, sl, fp}
 8000010:	08000cfd 	stmdaeq	r0, {r0, r2, r3, r4, r5, r6, r7, sl, fp}
 8000014:	08000cff 	stmdaeq	r0, {r0, r1, r2, r3, r4, r5, r6, r7, sl, fp}
 8000018:	08000d01 	stmdaeq	r0, {r0, r8, sl, fp}
	...
 800002c:	08002eb1 	stmdaeq	r0, {r0, r4, r5, r7, r9, sl, fp, sp}
 8000030:	08000d03 	stmdaeq	r0, {r0, r1, r8, sl, fp}
 8000034:	00000000 	andeq	r0, r0, r0
 8000038:	08002f51 	stmdaeq	r0, {r0, r4, r6, r8, r9, sl, fp, sp}
 800003c:	08002fb5 	stmdaeq	r0, {r0, r2, r4, r5, r7, r8, r9, sl, fp, sp}
 8000040:	0800313d 	stmdaeq	r0, {r0, r2, r3, r4, r5, r8, ip, sp}
 8000044:	0800313d 	stmdaeq	r0, {r0, r2, r3, r4, r5, r8, ip, sp}
 8000048:	0800313d 	stmdaeq	r0, {r0, r2, r3, r4, r5, r8, ip, sp}
 800004c:	0800313d 	stmdaeq	r0, {r0, r2, r3, r4, r5, r8, ip, sp}
 8000050:	0800313d 	stmdaeq	r0, {r0, r2, r3, r4, r5, r8, ip, sp}
 8000054:	0800313d 	stmdaeq	r0, {r0, r2, r3, r4, r5, r8, ip, sp}
 8000058:	0800313d 	stmdaeq	r0, {r0, r2, r3, r4, r5, r8, ip, sp}
 800005c:	0800313d 	stmdaeq	r0, {r0, r2, r3, r4, r5, r8, ip, sp}
 8000060:	0800313d 	stmdaeq	r0, {r0, r2, r3, r4, r5, r8, ip, sp}
 8000064:	0800313d 	stmdaeq	r0, {r0, r2, r3, r4, r5, r8, ip, sp}
 8000068:	0800313d 	stmdaeq	r0, {r0, r2, r3, r4, r5, r8, ip, sp}
 800006c:	0800313d 	stmdaeq	r0, {r0, r2, r3, r4, r5, r8, ip, sp}
 8000070:	0800313d 	stmdaeq	r0, {r0, r2, r3, r4, r5, r8, ip, sp}
 8000074:	0800313d 	stmdaeq	r0, {r0, r2, r3, r4, r5, r8, ip, sp}
 8000078:	0800313d 	stmdaeq	r0, {r0, r2, r3, r4, r5, r8, ip, sp}
 800007c:	0800313d 	stmdaeq	r0, {r0, r2, r3, r4, r5, r8, ip, sp}
 8000080:	0800313d 	stmdaeq	r0, {r0, r2, r3, r4, r5, r8, ip, sp}
 8000084:	0800313d 	stmdaeq	r0, {r0, r2, r3, r4, r5, r8, ip, sp}
 8000088:	0800313d 	stmdaeq	r0, {r0, r2, r3, r4, r5, r8, ip, sp}
 800008c:	0800313d 	stmdaeq	r0, {r0, r2, r3, r4, r5, r8, ip, sp}
 8000090:	0800313d 	stmdaeq	r0, {r0, r2, r3, r4, r5, r8, ip, sp}
 8000094:	0800313d 	stmdaeq	r0, {r0, r2, r3, r4, r5, r8, ip, sp}
 8000098:	0800313d 	stmdaeq	r0, {r0, r2, r3, r4, r5, r8, ip, sp}
 800009c:	0800313d 	stmdaeq	r0, {r0, r2, r3, r4, r5, r8, ip, sp}
 80000a0:	0800313d 	stmdaeq	r0, {r0, r2, r3, r4, r5, r8, ip, sp}
 80000a4:	0800313d 	stmdaeq	r0, {r0, r2, r3, r4, r5, r8, ip, sp}
 80000a8:	0800313d 	stmdaeq	r0, {r0, r2, r3, r4, r5, r8, ip, sp}
 80000ac:	0800313d 	stmdaeq	r0, {r0, r2, r3, r4, r5, r8, ip, sp}
 80000b0:	08000d05 	stmdaeq	r0, {r0, r2, r8, sl, fp}
 80000b4:	0800313d 	stmdaeq	r0, {r0, r2, r3, r4, r5, r8, ip, sp}
 80000b8:	0800313d 	stmdaeq	r0, {r0, r2, r3, r4, r5, r8, ip, sp}
 80000bc:	0800313d 	stmdaeq	r0, {r0, r2, r3, r4, r5, r8, ip, sp}
 80000c0:	0800313d 	stmdaeq	r0, {r0, r2, r3, r4, r5, r8, ip, sp}
 80000c4:	0800313d 	stmdaeq	r0, {r0, r2, r3, r4, r5, r8, ip, sp}
 80000c8:	0800313d 	stmdaeq	r0, {r0, r2, r3, r4, r5, r8, ip, sp}
 80000cc:	0800313d 	stmdaeq	r0, {r0, r2, r3, r4, r5, r8, ip, sp}
 80000d0:	0800313d 	stmdaeq	r0, {r0, r2, r3, r4, r5, r8, ip, sp}
 80000d4:	0800313d 	stmdaeq	r0, {r0, r2, r3, r4, r5, r8, ip, sp}
 80000d8:	0800313d 	stmdaeq	r0, {r0, r2, r3, r4, r5, r8, ip, sp}
 80000dc:	0800313d 	stmdaeq	r0, {r0, r2, r3, r4, r5, r8, ip, sp}
 80000e0:	0800313d 	stmdaeq	r0, {r0, r2, r3, r4, r5, r8, ip, sp}
 80000e4:	0800313d 	stmdaeq	r0, {r0, r2, r3, r4, r5, r8, ip, sp}
 80000e8:	0800313d 	stmdaeq	r0, {r0, r2, r3, r4, r5, r8, ip, sp}
 80000ec:	0800313d 	stmdaeq	r0, {r0, r2, r3, r4, r5, r8, ip, sp}
 80000f0:	0800313d 	stmdaeq	r0, {r0, r2, r3, r4, r5, r8, ip, sp}
 80000f4:	0800313d 	stmdaeq	r0, {r0, r2, r3, r4, r5, r8, ip, sp}
 80000f8:	0800313d 	stmdaeq	r0, {r0, r2, r3, r4, r5, r8, ip, sp}
 80000fc:	0800313d 	stmdaeq	r0, {r0, r2, r3, r4, r5, r8, ip, sp}
 8000100:	0800313d 	stmdaeq	r0, {r0, r2, r3, r4, r5, r8, ip, sp}
 8000104:	0800313d 	stmdaeq	r0, {r0, r2, r3, r4, r5, r8, ip, sp}
 8000108:	0800313d 	stmdaeq	r0, {r0, r2, r3, r4, r5, r8, ip, sp}
 800010c:	0800313d 	stmdaeq	r0, {r0, r2, r3, r4, r5, r8, ip, sp}
 8000110:	0800313d 	stmdaeq	r0, {r0, r2, r3, r4, r5, r8, ip, sp}
 8000114:	0800313d 	stmdaeq	r0, {r0, r2, r3, r4, r5, r8, ip, sp}
 8000118:	0800313d 	stmdaeq	r0, {r0, r2, r3, r4, r5, r8, ip, sp}
 800011c:	0800313d 	stmdaeq	r0, {r0, r2, r3, r4, r5, r8, ip, sp}
 8000120:	0800313d 	stmdaeq	r0, {r0, r2, r3, r4, r5, r8, ip, sp}
 8000124:	0800313d 	stmdaeq	r0, {r0, r2, r3, r4, r5, r8, ip, sp}
 8000128:	0800313d 	stmdaeq	r0, {r0, r2, r3, r4, r5, r8, ip, sp}
 800012c:	0800313d 	stmdaeq	r0, {r0, r2, r3, r4, r5, r8, ip, sp}
 8000130:	0800313d 	stmdaeq	r0, {r0, r2, r3, r4, r5, r8, ip, sp}
 8000134:	0800313d 	stmdaeq	r0, {r0, r2, r3, r4, r5, r8, ip, sp}
 8000138:	0800313d 	stmdaeq	r0, {r0, r2, r3, r4, r5, r8, ip, sp}
 800013c:	0800313d 	stmdaeq	r0, {r0, r2, r3, r4, r5, r8, ip, sp}
 8000140:	0800313d 	stmdaeq	r0, {r0, r2, r3, r4, r5, r8, ip, sp}
 8000144:	0800313d 	stmdaeq	r0, {r0, r2, r3, r4, r5, r8, ip, sp}
 8000148:	0800313d 	stmdaeq	r0, {r0, r2, r3, r4, r5, r8, ip, sp}
 800014c:	0800313d 	stmdaeq	r0, {r0, r2, r3, r4, r5, r8, ip, sp}
 8000150:	0800313d 	stmdaeq	r0, {r0, r2, r3, r4, r5, r8, ip, sp}
 8000154:	0800313d 	stmdaeq	r0, {r0, r2, r3, r4, r5, r8, ip, sp}
 8000158:	0800313d 	stmdaeq	r0, {r0, r2, r3, r4, r5, r8, ip, sp}
 800015c:	0800313d 	stmdaeq	r0, {r0, r2, r3, r4, r5, r8, ip, sp}
 8000160:	0800313d 	stmdaeq	r0, {r0, r2, r3, r4, r5, r8, ip, sp}
 8000164:	0800313d 	stmdaeq	r0, {r0, r2, r3, r4, r5, r8, ip, sp}
 8000168:	0800313d 	stmdaeq	r0, {r0, r2, r3, r4, r5, r8, ip, sp}
 800016c:	0800313d 	stmdaeq	r0, {r0, r2, r3, r4, r5, r8, ip, sp}
 8000170:	0800313d 	stmdaeq	r0, {r0, r2, r3, r4, r5, r8, ip, sp}
 8000174:	0800313d 	stmdaeq	r0, {r0, r2, r3, r4, r5, r8, ip, sp}
 8000178:	0800313d 	stmdaeq	r0, {r0, r2, r3, r4, r5, r8, ip, sp}
 800017c:	00000000 	andeq	r0, r0, r0
 8000180:	0800313d 	stmdaeq	r0, {r0, r2, r3, r4, r5, r8, ip, sp}
 8000184:	0800313d 	stmdaeq	r0, {r0, r2, r3, r4, r5, r8, ip, sp}
 8000188:	0800313d 	stmdaeq	r0, {r0, r2, r3, r4, r5, r8, ip, sp}
 800018c:	0800313d 	stmdaeq	r0, {r0, r2, r3, r4, r5, r8, ip, sp}
 8000190:	0800313d 	stmdaeq	r0, {r0, r2, r3, r4, r5, r8, ip, sp}
 8000194:	0800313d 	stmdaeq	r0, {r0, r2, r3, r4, r5, r8, ip, sp}
 8000198:	0800313d 	stmdaeq	r0, {r0, r2, r3, r4, r5, r8, ip, sp}
 800019c:	0800313d 	stmdaeq	r0, {r0, r2, r3, r4, r5, r8, ip, sp}
 80001a0:	0800313d 	stmdaeq	r0, {r0, r2, r3, r4, r5, r8, ip, sp}
 80001a4:	0800313d 	stmdaeq	r0, {r0, r2, r3, r4, r5, r8, ip, sp}
 80001a8:	0800313d 	stmdaeq	r0, {r0, r2, r3, r4, r5, r8, ip, sp}
 80001ac:	0800313d 	stmdaeq	r0, {r0, r2, r3, r4, r5, r8, ip, sp}
 80001b0:	0800313d 	stmdaeq	r0, {r0, r2, r3, r4, r5, r8, ip, sp}
 80001b4:	0800313d 	stmdaeq	r0, {r0, r2, r3, r4, r5, r8, ip, sp}
 80001b8:	0800313d 	stmdaeq	r0, {r0, r2, r3, r4, r5, r8, ip, sp}
 80001bc:	0800313d 	stmdaeq	r0, {r0, r2, r3, r4, r5, r8, ip, sp}
 80001c0:	0800313d 	stmdaeq	r0, {r0, r2, r3, r4, r5, r8, ip, sp}
 80001c4:	0800313d 	stmdaeq	r0, {r0, r2, r3, r4, r5, r8, ip, sp}
 80001c8:	0800313d 	stmdaeq	r0, {r0, r2, r3, r4, r5, r8, ip, sp}
 80001cc:	0800313d 	stmdaeq	r0, {r0, r2, r3, r4, r5, r8, ip, sp}
 80001d0:	0800313d 	stmdaeq	r0, {r0, r2, r3, r4, r5, r8, ip, sp}
 80001d4:	0800313d 	stmdaeq	r0, {r0, r2, r3, r4, r5, r8, ip, sp}
 80001d8:	0800313d 	stmdaeq	r0, {r0, r2, r3, r4, r5, r8, ip, sp}
 80001dc:	0800313d 	stmdaeq	r0, {r0, r2, r3, r4, r5, r8, ip, sp}
 80001e0:	0800313d 	stmdaeq	r0, {r0, r2, r3, r4, r5, r8, ip, sp}
 80001e4:	0800313d 	stmdaeq	r0, {r0, r2, r3, r4, r5, r8, ip, sp}
 80001e8:	0800313d 	stmdaeq	r0, {r0, r2, r3, r4, r5, r8, ip, sp}
 80001ec:	0800313d 	stmdaeq	r0, {r0, r2, r3, r4, r5, r8, ip, sp}
 80001f0:	0800313d 	stmdaeq	r0, {r0, r2, r3, r4, r5, r8, ip, sp}
 80001f4:	0800313d 	stmdaeq	r0, {r0, r2, r3, r4, r5, r8, ip, sp}

Disassembly of section .text:

08000200 <__do_global_dtors_aux>:
 8000200:	b510      	push	{r4, lr}
 8000202:	4c05      	ldr	r4, [pc, #20]	; (8000218 <__do_global_dtors_aux+0x18>)
 8000204:	7823      	ldrb	r3, [r4, #0]
 8000206:	b933      	cbnz	r3, 8000216 <__do_global_dtors_aux+0x16>
 8000208:	4b04      	ldr	r3, [pc, #16]	; (800021c <__do_global_dtors_aux+0x1c>)
 800020a:	b113      	cbz	r3, 8000212 <__do_global_dtors_aux+0x12>
 800020c:	4804      	ldr	r0, [pc, #16]	; (8000220 <__do_global_dtors_aux+0x20>)
 800020e:	f3af 8000 	nop.w
 8000212:	2301      	movs	r3, #1
 8000214:	7023      	strb	r3, [r4, #0]
 8000216:	bd10      	pop	{r4, pc}
 8000218:	200001dc 	ldrdcs	r0, [r0], -ip
 800021c:	00000000 	andeq	r0, r0, r0
 8000220:	08004a80 	stmdaeq	r0, {r7, r9, fp, lr}

08000224 <frame_dummy>:
 8000224:	b508      	push	{r3, lr}
 8000226:	4b03      	ldr	r3, [pc, #12]	; (8000234 <frame_dummy+0x10>)
 8000228:	b11b      	cbz	r3, 8000232 <frame_dummy+0xe>
 800022a:	4903      	ldr	r1, [pc, #12]	; (8000238 <frame_dummy+0x14>)
 800022c:	4803      	ldr	r0, [pc, #12]	; (800023c <frame_dummy+0x18>)
 800022e:	f3af 8000 	nop.w
 8000232:	bd08      	pop	{r3, pc}
 8000234:	00000000 	andeq	r0, r0, r0
 8000238:	200001e0 	andcs	r0, r0, r0, ror #3
 800023c:	08004a80 	stmdaeq	r0, {r7, r9, fp, lr}

08000240 <strlen>:
 8000240:	4603      	mov	r3, r0
 8000242:	f813 2b01 	ldrb.w	r2, [r3], #1
 8000246:	2a00      	cmp	r2, #0
 8000248:	d1fb      	bne.n	8000242 <strlen+0x2>
 800024a:	1a18      	subs	r0, r3, r0
 800024c:	3801      	subs	r0, #1
 800024e:	4770      	bx	lr

08000250 <__aeabi_uldivmod>:
 8000250:	b953      	cbnz	r3, 8000268 <__aeabi_uldivmod+0x18>
 8000252:	b94a      	cbnz	r2, 8000268 <__aeabi_uldivmod+0x18>
 8000254:	2900      	cmp	r1, #0
 8000256:	bf08      	it	eq
 8000258:	2800      	cmpeq	r0, #0
 800025a:	bf1c      	itt	ne
 800025c:	f04f 31ff 	movne.w	r1, #4294967295	; 0xffffffff
 8000260:	f04f 30ff 	movne.w	r0, #4294967295	; 0xffffffff
 8000264:	f000 b974 	b.w	8000550 <__aeabi_idiv0>
 8000268:	f1ad 0c08 	sub.w	ip, sp, #8
 800026c:	e96d ce04 	strd	ip, lr, [sp, #-16]!
 8000270:	f000 f806 	bl	8000280 <__udivmoddi4>
 8000274:	f8dd e004 	ldr.w	lr, [sp, #4]
 8000278:	e9dd 2302 	ldrd	r2, r3, [sp, #8]
 800027c:	b004      	add	sp, #16
 800027e:	4770      	bx	lr

08000280 <__udivmoddi4>:
 8000280:	e92d 47f0 	stmdb	sp!, {r4, r5, r6, r7, r8, r9, sl, lr}
 8000284:	9e08      	ldr	r6, [sp, #32]
 8000286:	4604      	mov	r4, r0
 8000288:	4688      	mov	r8, r1
 800028a:	2b00      	cmp	r3, #0
 800028c:	f040 8085 	bne.w	800039a <__udivmoddi4+0x11a>
 8000290:	428a      	cmp	r2, r1
 8000292:	4615      	mov	r5, r2
 8000294:	d948      	bls.n	8000328 <__udivmoddi4+0xa8>
 8000296:	fab2 f282 	clz	r2, r2
 800029a:	b14a      	cbz	r2, 80002b0 <__udivmoddi4+0x30>
 800029c:	f1c2 0720 	rsb	r7, r2, #32
 80002a0:	fa01 f302 	lsl.w	r3, r1, r2
 80002a4:	fa20 f707 	lsr.w	r7, r0, r7
 80002a8:	4095      	lsls	r5, r2
 80002aa:	ea47 0803 	orr.w	r8, r7, r3
 80002ae:	4094      	lsls	r4, r2
 80002b0:	ea4f 4e15 	mov.w	lr, r5, lsr #16
 80002b4:	0c23      	lsrs	r3, r4, #16
 80002b6:	fbb8 f7fe 	udiv	r7, r8, lr
 80002ba:	fa1f fc85 	uxth.w	ip, r5
 80002be:	fb0e 8817 	mls	r8, lr, r7, r8
 80002c2:	ea43 4308 	orr.w	r3, r3, r8, lsl #16
 80002c6:	fb07 f10c 	mul.w	r1, r7, ip
 80002ca:	4299      	cmp	r1, r3
 80002cc:	d909      	bls.n	80002e2 <__udivmoddi4+0x62>
 80002ce:	18eb      	adds	r3, r5, r3
 80002d0:	f107 30ff 	add.w	r0, r7, #4294967295	; 0xffffffff
 80002d4:	f080 80e3 	bcs.w	800049e <__udivmoddi4+0x21e>
 80002d8:	4299      	cmp	r1, r3
 80002da:	f240 80e0 	bls.w	800049e <__udivmoddi4+0x21e>
 80002de:	3f02      	subs	r7, #2
 80002e0:	442b      	add	r3, r5
 80002e2:	1a5b      	subs	r3, r3, r1
 80002e4:	b2a4      	uxth	r4, r4
 80002e6:	fbb3 f0fe 	udiv	r0, r3, lr
 80002ea:	fb0e 3310 	mls	r3, lr, r0, r3
 80002ee:	ea44 4403 	orr.w	r4, r4, r3, lsl #16
 80002f2:	fb00 fc0c 	mul.w	ip, r0, ip
 80002f6:	45a4      	cmp	ip, r4
 80002f8:	d909      	bls.n	800030e <__udivmoddi4+0x8e>
 80002fa:	192c      	adds	r4, r5, r4
 80002fc:	f100 33ff 	add.w	r3, r0, #4294967295	; 0xffffffff
 8000300:	f080 80cb 	bcs.w	800049a <__udivmoddi4+0x21a>
 8000304:	45a4      	cmp	ip, r4
 8000306:	f240 80c8 	bls.w	800049a <__udivmoddi4+0x21a>
 800030a:	3802      	subs	r0, #2
 800030c:	442c      	add	r4, r5
 800030e:	ea40 4007 	orr.w	r0, r0, r7, lsl #16
 8000312:	eba4 040c 	sub.w	r4, r4, ip
 8000316:	2700      	movs	r7, #0
 8000318:	b11e      	cbz	r6, 8000322 <__udivmoddi4+0xa2>
 800031a:	40d4      	lsrs	r4, r2
 800031c:	2300      	movs	r3, #0
 800031e:	e9c6 4300 	strd	r4, r3, [r6]
 8000322:	4639      	mov	r1, r7
 8000324:	e8bd 87f0 	ldmia.w	sp!, {r4, r5, r6, r7, r8, r9, sl, pc}
 8000328:	2a00      	cmp	r2, #0
 800032a:	d053      	beq.n	80003d4 <__udivmoddi4+0x154>
 800032c:	fab2 f282 	clz	r2, r2
 8000330:	2a00      	cmp	r2, #0
 8000332:	f040 80b6 	bne.w	80004a2 <__udivmoddi4+0x222>
 8000336:	1b49      	subs	r1, r1, r5
 8000338:	ea4f 4e15 	mov.w	lr, r5, lsr #16
 800033c:	fa1f f885 	uxth.w	r8, r5
 8000340:	2701      	movs	r7, #1
 8000342:	fbb1 fcfe 	udiv	ip, r1, lr
 8000346:	0c23      	lsrs	r3, r4, #16
 8000348:	fb0e 111c 	mls	r1, lr, ip, r1
 800034c:	ea43 4301 	orr.w	r3, r3, r1, lsl #16
 8000350:	fb08 f10c 	mul.w	r1, r8, ip
 8000354:	4299      	cmp	r1, r3
 8000356:	d907      	bls.n	8000368 <__udivmoddi4+0xe8>
 8000358:	18eb      	adds	r3, r5, r3
 800035a:	f10c 30ff 	add.w	r0, ip, #4294967295	; 0xffffffff
 800035e:	d202      	bcs.n	8000366 <__udivmoddi4+0xe6>
 8000360:	4299      	cmp	r1, r3
 8000362:	f200 80ec 	bhi.w	800053e <__udivmoddi4+0x2be>
 8000366:	4684      	mov	ip, r0
 8000368:	1a59      	subs	r1, r3, r1
 800036a:	b2a3      	uxth	r3, r4
 800036c:	fbb1 f0fe 	udiv	r0, r1, lr
 8000370:	fb0e 1410 	mls	r4, lr, r0, r1
 8000374:	ea43 4404 	orr.w	r4, r3, r4, lsl #16
 8000378:	fb08 f800 	mul.w	r8, r8, r0
 800037c:	45a0      	cmp	r8, r4
 800037e:	d907      	bls.n	8000390 <__udivmoddi4+0x110>
 8000380:	192c      	adds	r4, r5, r4
 8000382:	f100 33ff 	add.w	r3, r0, #4294967295	; 0xffffffff
 8000386:	d202      	bcs.n	800038e <__udivmoddi4+0x10e>
 8000388:	45a0      	cmp	r8, r4
 800038a:	f200 80dc 	bhi.w	8000546 <__udivmoddi4+0x2c6>
 800038e:	4618      	mov	r0, r3
 8000390:	eba4 0408 	sub.w	r4, r4, r8
 8000394:	ea40 400c 	orr.w	r0, r0, ip, lsl #16
 8000398:	e7be      	b.n	8000318 <__udivmoddi4+0x98>
 800039a:	428b      	cmp	r3, r1
 800039c:	d908      	bls.n	80003b0 <__udivmoddi4+0x130>
 800039e:	2e00      	cmp	r6, #0
 80003a0:	d078      	beq.n	8000494 <__udivmoddi4+0x214>
 80003a2:	2700      	movs	r7, #0
 80003a4:	e9c6 0100 	strd	r0, r1, [r6]
 80003a8:	4638      	mov	r0, r7
 80003aa:	4639      	mov	r1, r7
 80003ac:	e8bd 87f0 	ldmia.w	sp!, {r4, r5, r6, r7, r8, r9, sl, pc}
 80003b0:	fab3 f783 	clz	r7, r3
 80003b4:	b97f      	cbnz	r7, 80003d6 <__udivmoddi4+0x156>
 80003b6:	428b      	cmp	r3, r1
 80003b8:	d302      	bcc.n	80003c0 <__udivmoddi4+0x140>
 80003ba:	4282      	cmp	r2, r0
 80003bc:	f200 80bd 	bhi.w	800053a <__udivmoddi4+0x2ba>
 80003c0:	1a84      	subs	r4, r0, r2
 80003c2:	eb61 0303 	sbc.w	r3, r1, r3
 80003c6:	2001      	movs	r0, #1
 80003c8:	4698      	mov	r8, r3
 80003ca:	2e00      	cmp	r6, #0
 80003cc:	d0a9      	beq.n	8000322 <__udivmoddi4+0xa2>
 80003ce:	e9c6 4800 	strd	r4, r8, [r6]
 80003d2:	e7a6      	b.n	8000322 <__udivmoddi4+0xa2>
 80003d4:	deff      	udf	#255	; 0xff
 80003d6:	f1c7 0520 	rsb	r5, r7, #32
 80003da:	40bb      	lsls	r3, r7
 80003dc:	fa22 fc05 	lsr.w	ip, r2, r5
 80003e0:	ea4c 0c03 	orr.w	ip, ip, r3
 80003e4:	fa01 f407 	lsl.w	r4, r1, r7
 80003e8:	fa20 f805 	lsr.w	r8, r0, r5
 80003ec:	fa21 f305 	lsr.w	r3, r1, r5
 80003f0:	ea4f 4e1c 	mov.w	lr, ip, lsr #16
 80003f4:	ea48 0404 	orr.w	r4, r8, r4
 80003f8:	fbb3 f9fe 	udiv	r9, r3, lr
 80003fc:	0c21      	lsrs	r1, r4, #16
 80003fe:	fb0e 3319 	mls	r3, lr, r9, r3
 8000402:	fa1f f88c 	uxth.w	r8, ip
 8000406:	ea41 4303 	orr.w	r3, r1, r3, lsl #16
 800040a:	fb09 fa08 	mul.w	sl, r9, r8
 800040e:	459a      	cmp	sl, r3
 8000410:	fa02 f207 	lsl.w	r2, r2, r7
 8000414:	fa00 f107 	lsl.w	r1, r0, r7
 8000418:	d90b      	bls.n	8000432 <__udivmoddi4+0x1b2>
 800041a:	eb1c 0303 	adds.w	r3, ip, r3
 800041e:	f109 30ff 	add.w	r0, r9, #4294967295	; 0xffffffff
 8000422:	f080 8088 	bcs.w	8000536 <__udivmoddi4+0x2b6>
 8000426:	459a      	cmp	sl, r3
 8000428:	f240 8085 	bls.w	8000536 <__udivmoddi4+0x2b6>
 800042c:	f1a9 0902 	sub.w	r9, r9, #2
 8000430:	4463      	add	r3, ip
 8000432:	eba3 030a 	sub.w	r3, r3, sl
 8000436:	b2a4      	uxth	r4, r4
 8000438:	fbb3 f0fe 	udiv	r0, r3, lr
 800043c:	fb0e 3310 	mls	r3, lr, r0, r3
 8000440:	ea44 4403 	orr.w	r4, r4, r3, lsl #16
 8000444:	fb00 f808 	mul.w	r8, r0, r8
 8000448:	45a0      	cmp	r8, r4
 800044a:	d908      	bls.n	800045e <__udivmoddi4+0x1de>
 800044c:	eb1c 0404 	adds.w	r4, ip, r4
 8000450:	f100 33ff 	add.w	r3, r0, #4294967295	; 0xffffffff
 8000454:	d26b      	bcs.n	800052e <__udivmoddi4+0x2ae>
 8000456:	45a0      	cmp	r8, r4
 8000458:	d969      	bls.n	800052e <__udivmoddi4+0x2ae>
 800045a:	3802      	subs	r0, #2
 800045c:	4464      	add	r4, ip
 800045e:	ea40 4009 	orr.w	r0, r0, r9, lsl #16
 8000462:	eba4 0408 	sub.w	r4, r4, r8
 8000466:	fba0 8902 	umull	r8, r9, r0, r2
 800046a:	454c      	cmp	r4, r9
 800046c:	46c6      	mov	lr, r8
 800046e:	464b      	mov	r3, r9
 8000470:	d354      	bcc.n	800051c <__udivmoddi4+0x29c>
 8000472:	d051      	beq.n	8000518 <__udivmoddi4+0x298>
 8000474:	2e00      	cmp	r6, #0
 8000476:	d069      	beq.n	800054c <__udivmoddi4+0x2cc>
 8000478:	ebb1 020e 	subs.w	r2, r1, lr
 800047c:	eb64 0403 	sbc.w	r4, r4, r3
 8000480:	fa04 f505 	lsl.w	r5, r4, r5
 8000484:	fa22 f307 	lsr.w	r3, r2, r7
 8000488:	40fc      	lsrs	r4, r7
 800048a:	431d      	orrs	r5, r3
 800048c:	e9c6 5400 	strd	r5, r4, [r6]
 8000490:	2700      	movs	r7, #0
 8000492:	e746      	b.n	8000322 <__udivmoddi4+0xa2>
 8000494:	4637      	mov	r7, r6
 8000496:	4630      	mov	r0, r6
 8000498:	e743      	b.n	8000322 <__udivmoddi4+0xa2>
 800049a:	4618      	mov	r0, r3
 800049c:	e737      	b.n	800030e <__udivmoddi4+0x8e>
 800049e:	4607      	mov	r7, r0
 80004a0:	e71f      	b.n	80002e2 <__udivmoddi4+0x62>
 80004a2:	f1c2 0320 	rsb	r3, r2, #32
 80004a6:	fa20 f703 	lsr.w	r7, r0, r3
 80004aa:	4095      	lsls	r5, r2
 80004ac:	fa01 f002 	lsl.w	r0, r1, r2
 80004b0:	fa21 f303 	lsr.w	r3, r1, r3
 80004b4:	ea4f 4e15 	mov.w	lr, r5, lsr #16
 80004b8:	4338      	orrs	r0, r7
 80004ba:	0c01      	lsrs	r1, r0, #16
 80004bc:	fbb3 f7fe 	udiv	r7, r3, lr
 80004c0:	fa1f f885 	uxth.w	r8, r5
 80004c4:	fb0e 3317 	mls	r3, lr, r7, r3
 80004c8:	ea41 4103 	orr.w	r1, r1, r3, lsl #16
 80004cc:	fb07 f308 	mul.w	r3, r7, r8
 80004d0:	428b      	cmp	r3, r1
 80004d2:	fa04 f402 	lsl.w	r4, r4, r2
 80004d6:	d907      	bls.n	80004e8 <__udivmoddi4+0x268>
 80004d8:	1869      	adds	r1, r5, r1
 80004da:	f107 3cff 	add.w	ip, r7, #4294967295	; 0xffffffff
 80004de:	d228      	bcs.n	8000532 <__udivmoddi4+0x2b2>
 80004e0:	428b      	cmp	r3, r1
 80004e2:	d926      	bls.n	8000532 <__udivmoddi4+0x2b2>
 80004e4:	3f02      	subs	r7, #2
 80004e6:	4429      	add	r1, r5
 80004e8:	1acb      	subs	r3, r1, r3
 80004ea:	b281      	uxth	r1, r0
 80004ec:	fbb3 f0fe 	udiv	r0, r3, lr
 80004f0:	fb0e 3310 	mls	r3, lr, r0, r3
 80004f4:	ea41 4103 	orr.w	r1, r1, r3, lsl #16
 80004f8:	fb00 f308 	mul.w	r3, r0, r8
 80004fc:	428b      	cmp	r3, r1
 80004fe:	d907      	bls.n	8000510 <__udivmoddi4+0x290>
 8000500:	1869      	adds	r1, r5, r1
 8000502:	f100 3cff 	add.w	ip, r0, #4294967295	; 0xffffffff
 8000506:	d210      	bcs.n	800052a <__udivmoddi4+0x2aa>
 8000508:	428b      	cmp	r3, r1
 800050a:	d90e      	bls.n	800052a <__udivmoddi4+0x2aa>
 800050c:	3802      	subs	r0, #2
 800050e:	4429      	add	r1, r5
 8000510:	1ac9      	subs	r1, r1, r3
 8000512:	ea40 4707 	orr.w	r7, r0, r7, lsl #16
 8000516:	e714      	b.n	8000342 <__udivmoddi4+0xc2>
 8000518:	4541      	cmp	r1, r8
 800051a:	d2ab      	bcs.n	8000474 <__udivmoddi4+0x1f4>
 800051c:	ebb8 0e02 	subs.w	lr, r8, r2
 8000520:	eb69 020c 	sbc.w	r2, r9, ip
 8000524:	3801      	subs	r0, #1
 8000526:	4613      	mov	r3, r2
 8000528:	e7a4      	b.n	8000474 <__udivmoddi4+0x1f4>
 800052a:	4660      	mov	r0, ip
 800052c:	e7f0      	b.n	8000510 <__udivmoddi4+0x290>
 800052e:	4618      	mov	r0, r3
 8000530:	e795      	b.n	800045e <__udivmoddi4+0x1de>
 8000532:	4667      	mov	r7, ip
 8000534:	e7d8      	b.n	80004e8 <__udivmoddi4+0x268>
 8000536:	4681      	mov	r9, r0
 8000538:	e77b      	b.n	8000432 <__udivmoddi4+0x1b2>
 800053a:	4638      	mov	r0, r7
 800053c:	e745      	b.n	80003ca <__udivmoddi4+0x14a>
 800053e:	f1ac 0c02 	sub.w	ip, ip, #2
 8000542:	442b      	add	r3, r5
 8000544:	e710      	b.n	8000368 <__udivmoddi4+0xe8>
 8000546:	3802      	subs	r0, #2
 8000548:	442c      	add	r4, r5
 800054a:	e721      	b.n	8000390 <__udivmoddi4+0x110>
 800054c:	4637      	mov	r7, r6
 800054e:	e6e8      	b.n	8000322 <__udivmoddi4+0xa2>

08000550 <__aeabi_idiv0>:
 8000550:	4770      	bx	lr
 8000552:	bf00      	nop

08000554 <MX_GPIO_Init>:
 8000554:	e92d 4ff0 	stmdb	sp!, {r4, r5, r6, r7, r8, r9, sl, fp, lr}
 8000558:	b091      	sub	sp, #68	; 0x44
 800055a:	2400      	movs	r4, #0
 800055c:	940b      	str	r4, [sp, #44]	; 0x2c
 800055e:	940c      	str	r4, [sp, #48]	; 0x30
 8000560:	940d      	str	r4, [sp, #52]	; 0x34
 8000562:	940e      	str	r4, [sp, #56]	; 0x38
 8000564:	940f      	str	r4, [sp, #60]	; 0x3c
 8000566:	4ba8      	ldr	r3, [pc, #672]	; (8000808 <MX_GPIO_Init+0x2b4>)
 8000568:	6b1a      	ldr	r2, [r3, #48]	; 0x30
 800056a:	f042 0210 	orr.w	r2, r2, #16
 800056e:	631a      	str	r2, [r3, #48]	; 0x30
 8000570:	6b1a      	ldr	r2, [r3, #48]	; 0x30
 8000572:	f002 0210 	and.w	r2, r2, #16
 8000576:	9200      	str	r2, [sp, #0]
 8000578:	9a00      	ldr	r2, [sp, #0]
 800057a:	6b1a      	ldr	r2, [r3, #48]	; 0x30
 800057c:	f042 0240 	orr.w	r2, r2, #64	; 0x40
 8000580:	631a      	str	r2, [r3, #48]	; 0x30
 8000582:	6b1a      	ldr	r2, [r3, #48]	; 0x30
 8000584:	f002 0240 	and.w	r2, r2, #64	; 0x40
 8000588:	9201      	str	r2, [sp, #4]
 800058a:	9a01      	ldr	r2, [sp, #4]
 800058c:	6b1a      	ldr	r2, [r3, #48]	; 0x30
 800058e:	f042 0202 	orr.w	r2, r2, #2
 8000592:	631a      	str	r2, [r3, #48]	; 0x30
 8000594:	6b1a      	ldr	r2, [r3, #48]	; 0x30
 8000596:	f002 0202 	and.w	r2, r2, #2
 800059a:	9202      	str	r2, [sp, #8]
 800059c:	9a02      	ldr	r2, [sp, #8]
 800059e:	6b1a      	ldr	r2, [r3, #48]	; 0x30
 80005a0:	f042 0208 	orr.w	r2, r2, #8
 80005a4:	631a      	str	r2, [r3, #48]	; 0x30
 80005a6:	6b1a      	ldr	r2, [r3, #48]	; 0x30
 80005a8:	f002 0208 	and.w	r2, r2, #8
 80005ac:	9203      	str	r2, [sp, #12]
 80005ae:	9a03      	ldr	r2, [sp, #12]
 80005b0:	6b1a      	ldr	r2, [r3, #48]	; 0x30
 80005b2:	f042 0204 	orr.w	r2, r2, #4
 80005b6:	631a      	str	r2, [r3, #48]	; 0x30
 80005b8:	6b1a      	ldr	r2, [r3, #48]	; 0x30
 80005ba:	f002 0204 	and.w	r2, r2, #4
 80005be:	9204      	str	r2, [sp, #16]
 80005c0:	9a04      	ldr	r2, [sp, #16]
 80005c2:	6b1a      	ldr	r2, [r3, #48]	; 0x30
 80005c4:	f042 0201 	orr.w	r2, r2, #1
 80005c8:	631a      	str	r2, [r3, #48]	; 0x30
 80005ca:	6b1a      	ldr	r2, [r3, #48]	; 0x30
 80005cc:	f002 0201 	and.w	r2, r2, #1
 80005d0:	9205      	str	r2, [sp, #20]
 80005d2:	9a05      	ldr	r2, [sp, #20]
 80005d4:	6b1a      	ldr	r2, [r3, #48]	; 0x30
 80005d6:	f442 7200 	orr.w	r2, r2, #512	; 0x200
 80005da:	631a      	str	r2, [r3, #48]	; 0x30
 80005dc:	6b1a      	ldr	r2, [r3, #48]	; 0x30
 80005de:	f402 7200 	and.w	r2, r2, #512	; 0x200
 80005e2:	9206      	str	r2, [sp, #24]
 80005e4:	9a06      	ldr	r2, [sp, #24]
 80005e6:	6b1a      	ldr	r2, [r3, #48]	; 0x30
 80005e8:	f442 7280 	orr.w	r2, r2, #256	; 0x100
 80005ec:	631a      	str	r2, [r3, #48]	; 0x30
 80005ee:	6b1a      	ldr	r2, [r3, #48]	; 0x30
 80005f0:	f402 7280 	and.w	r2, r2, #256	; 0x100
 80005f4:	9207      	str	r2, [sp, #28]
 80005f6:	9a07      	ldr	r2, [sp, #28]
 80005f8:	6b1a      	ldr	r2, [r3, #48]	; 0x30
 80005fa:	f442 6280 	orr.w	r2, r2, #1024	; 0x400
 80005fe:	631a      	str	r2, [r3, #48]	; 0x30
 8000600:	6b1a      	ldr	r2, [r3, #48]	; 0x30
 8000602:	f402 6280 	and.w	r2, r2, #1024	; 0x400
 8000606:	9208      	str	r2, [sp, #32]
 8000608:	9a08      	ldr	r2, [sp, #32]
 800060a:	6b1a      	ldr	r2, [r3, #48]	; 0x30
 800060c:	f042 0220 	orr.w	r2, r2, #32
 8000610:	631a      	str	r2, [r3, #48]	; 0x30
 8000612:	6b1a      	ldr	r2, [r3, #48]	; 0x30
 8000614:	f002 0220 	and.w	r2, r2, #32
 8000618:	9209      	str	r2, [sp, #36]	; 0x24
 800061a:	9a09      	ldr	r2, [sp, #36]	; 0x24
 800061c:	6b1a      	ldr	r2, [r3, #48]	; 0x30
 800061e:	f042 0280 	orr.w	r2, r2, #128	; 0x80
 8000622:	631a      	str	r2, [r3, #48]	; 0x30
 8000624:	6b1b      	ldr	r3, [r3, #48]	; 0x30
 8000626:	f003 0380 	and.w	r3, r3, #128	; 0x80
 800062a:	930a      	str	r3, [sp, #40]	; 0x28
 800062c:	9b0a      	ldr	r3, [sp, #40]	; 0x28
 800062e:	4622      	mov	r2, r4
 8000630:	2120      	movs	r1, #32
 8000632:	4876      	ldr	r0, [pc, #472]	; (800080c <MX_GPIO_Init+0x2b8>)
 8000634:	f001 ffb8 	bl	80025a8 <HAL_GPIO_WritePin>
 8000638:	2378      	movs	r3, #120	; 0x78
 800063a:	930b      	str	r3, [sp, #44]	; 0x2c
 800063c:	2502      	movs	r5, #2
 800063e:	950c      	str	r5, [sp, #48]	; 0x30
 8000640:	940d      	str	r4, [sp, #52]	; 0x34
 8000642:	940e      	str	r4, [sp, #56]	; 0x38
 8000644:	2306      	movs	r3, #6
 8000646:	930f      	str	r3, [sp, #60]	; 0x3c
 8000648:	f8df 81dc 	ldr.w	r8, [pc, #476]	; 8000828 <MX_GPIO_Init+0x2d4>
 800064c:	a90b      	add	r1, sp, #44	; 0x2c
 800064e:	4640      	mov	r0, r8
 8000650:	f001 feba 	bl	80023c8 <HAL_GPIO_Init>
 8000654:	2704      	movs	r7, #4
 8000656:	970b      	str	r7, [sp, #44]	; 0x2c
 8000658:	950c      	str	r5, [sp, #48]	; 0x30
 800065a:	940d      	str	r4, [sp, #52]	; 0x34
 800065c:	2603      	movs	r6, #3
 800065e:	960e      	str	r6, [sp, #56]	; 0x38
 8000660:	2309      	movs	r3, #9
 8000662:	930f      	str	r3, [sp, #60]	; 0x3c
 8000664:	a90b      	add	r1, sp, #44	; 0x2c
 8000666:	4640      	mov	r0, r8
 8000668:	f001 feae 	bl	80023c8 <HAL_GPIO_Init>
 800066c:	f44f 43d0 	mov.w	r3, #26624	; 0x6800
 8000670:	930b      	str	r3, [sp, #44]	; 0x2c
 8000672:	950c      	str	r5, [sp, #48]	; 0x30
 8000674:	940d      	str	r4, [sp, #52]	; 0x34
 8000676:	960e      	str	r6, [sp, #56]	; 0x38
 8000678:	f04f 0b0b 	mov.w	fp, #11
 800067c:	f8cd b03c 	str.w	fp, [sp, #60]	; 0x3c
 8000680:	a90b      	add	r1, sp, #44	; 0x2c
 8000682:	4863      	ldr	r0, [pc, #396]	; (8000810 <MX_GPIO_Init+0x2bc>)
 8000684:	f001 fea0 	bl	80023c8 <HAL_GPIO_Init>
 8000688:	f64f 7383 	movw	r3, #65411	; 0xff83
 800068c:	930b      	str	r3, [sp, #44]	; 0x2c
 800068e:	950c      	str	r5, [sp, #48]	; 0x30
 8000690:	940d      	str	r4, [sp, #52]	; 0x34
 8000692:	960e      	str	r6, [sp, #56]	; 0x38
 8000694:	f04f 090c 	mov.w	r9, #12
 8000698:	f8cd 903c 	str.w	r9, [sp, #60]	; 0x3c
 800069c:	a90b      	add	r1, sp, #44	; 0x2c
 800069e:	4640      	mov	r0, r8
 80006a0:	f001 fe92 	bl	80023c8 <HAL_GPIO_Init>
 80006a4:	f44f 7340 	mov.w	r3, #768	; 0x300
 80006a8:	930b      	str	r3, [sp, #44]	; 0x2c
 80006aa:	2312      	movs	r3, #18
 80006ac:	930c      	str	r3, [sp, #48]	; 0x30
 80006ae:	f04f 0a01 	mov.w	sl, #1
 80006b2:	f8cd a034 	str.w	sl, [sp, #52]	; 0x34
 80006b6:	940e      	str	r4, [sp, #56]	; 0x38
 80006b8:	970f      	str	r7, [sp, #60]	; 0x3c
 80006ba:	a90b      	add	r1, sp, #44	; 0x2c
 80006bc:	4855      	ldr	r0, [pc, #340]	; (8000814 <MX_GPIO_Init+0x2c0>)
 80006be:	f001 fe83 	bl	80023c8 <HAL_GPIO_Init>
 80006c2:	f643 4323 	movw	r3, #15395	; 0x3c23
 80006c6:	930b      	str	r3, [sp, #44]	; 0x2c
 80006c8:	950c      	str	r5, [sp, #48]	; 0x30
 80006ca:	940d      	str	r4, [sp, #52]	; 0x34
 80006cc:	960e      	str	r6, [sp, #56]	; 0x38
 80006ce:	f04f 080a 	mov.w	r8, #10
 80006d2:	f8cd 803c 	str.w	r8, [sp, #60]	; 0x3c
 80006d6:	a90b      	add	r1, sp, #44	; 0x2c
 80006d8:	484e      	ldr	r0, [pc, #312]	; (8000814 <MX_GPIO_Init+0x2c0>)
 80006da:	f001 fe75 	bl	80023c8 <HAL_GPIO_Init>
 80006de:	2318      	movs	r3, #24
 80006e0:	930b      	str	r3, [sp, #44]	; 0x2c
 80006e2:	950c      	str	r5, [sp, #48]	; 0x30
 80006e4:	940d      	str	r4, [sp, #52]	; 0x34
 80006e6:	960e      	str	r6, [sp, #56]	; 0x38
 80006e8:	f8cd 803c 	str.w	r8, [sp, #60]	; 0x3c
 80006ec:	a90b      	add	r1, sp, #44	; 0x2c
 80006ee:	4849      	ldr	r0, [pc, #292]	; (8000814 <MX_GPIO_Init+0x2c0>)
 80006f0:	f001 fe6a 	bl	80023c8 <HAL_GPIO_Init>
 80006f4:	23c0      	movs	r3, #192	; 0xc0
 80006f6:	930b      	str	r3, [sp, #44]	; 0x2c
 80006f8:	950c      	str	r5, [sp, #48]	; 0x30
 80006fa:	940d      	str	r4, [sp, #52]	; 0x34
 80006fc:	960e      	str	r6, [sp, #56]	; 0x38
 80006fe:	f8cd b03c 	str.w	fp, [sp, #60]	; 0x3c
 8000702:	a90b      	add	r1, sp, #44	; 0x2c
 8000704:	4844      	ldr	r0, [pc, #272]	; (8000818 <MX_GPIO_Init+0x2c4>)
 8000706:	f001 fe5f 	bl	80023c8 <HAL_GPIO_Init>
 800070a:	f44f 5380 	mov.w	r3, #4096	; 0x1000
 800070e:	930b      	str	r3, [sp, #44]	; 0x2c
 8000710:	950c      	str	r5, [sp, #48]	; 0x30
 8000712:	940d      	str	r4, [sp, #52]	; 0x34
 8000714:	960e      	str	r6, [sp, #56]	; 0x38
 8000716:	2308      	movs	r3, #8
 8000718:	930f      	str	r3, [sp, #60]	; 0x3c
 800071a:	a90b      	add	r1, sp, #44	; 0x2c
 800071c:	483f      	ldr	r0, [pc, #252]	; (800081c <MX_GPIO_Init+0x2c8>)
 800071e:	f001 fe53 	bl	80023c8 <HAL_GPIO_Init>
 8000722:	f44f 4300 	mov.w	r3, #32768	; 0x8000
 8000726:	930b      	str	r3, [sp, #44]	; 0x2c
 8000728:	2312      	movs	r3, #18
 800072a:	930c      	str	r3, [sp, #48]	; 0x30
 800072c:	940d      	str	r4, [sp, #52]	; 0x34
 800072e:	940e      	str	r4, [sp, #56]	; 0x38
 8000730:	970f      	str	r7, [sp, #60]	; 0x3c
 8000732:	a90b      	add	r1, sp, #44	; 0x2c
 8000734:	483a      	ldr	r0, [pc, #232]	; (8000820 <MX_GPIO_Init+0x2cc>)
 8000736:	f001 fe47 	bl	80023c8 <HAL_GPIO_Init>
 800073a:	2380      	movs	r3, #128	; 0x80
 800073c:	930b      	str	r3, [sp, #44]	; 0x2c
 800073e:	2312      	movs	r3, #18
 8000740:	930c      	str	r3, [sp, #48]	; 0x30
 8000742:	f8cd a034 	str.w	sl, [sp, #52]	; 0x34
 8000746:	960e      	str	r6, [sp, #56]	; 0x38
 8000748:	f8cd b03c 	str.w	fp, [sp, #60]	; 0x3c
 800074c:	a90b      	add	r1, sp, #44	; 0x2c
 800074e:	4831      	ldr	r0, [pc, #196]	; (8000814 <MX_GPIO_Init+0x2c0>)
 8000750:	f001 fe3a 	bl	80023c8 <HAL_GPIO_Init>
 8000754:	2340      	movs	r3, #64	; 0x40
 8000756:	930b      	str	r3, [sp, #44]	; 0x2c
 8000758:	950c      	str	r5, [sp, #48]	; 0x30
 800075a:	940d      	str	r4, [sp, #52]	; 0x34
 800075c:	960e      	str	r6, [sp, #56]	; 0x38
 800075e:	f8cd 803c 	str.w	r8, [sp, #60]	; 0x3c
 8000762:	a90b      	add	r1, sp, #44	; 0x2c
 8000764:	482b      	ldr	r0, [pc, #172]	; (8000814 <MX_GPIO_Init+0x2c0>)
 8000766:	f001 fe2f 	bl	80023c8 <HAL_GPIO_Init>
 800076a:	f248 1337 	movw	r3, #33079	; 0x8137
 800076e:	930b      	str	r3, [sp, #44]	; 0x2c
 8000770:	950c      	str	r5, [sp, #48]	; 0x30
 8000772:	940d      	str	r4, [sp, #52]	; 0x34
 8000774:	960e      	str	r6, [sp, #56]	; 0x38
 8000776:	f8cd 903c 	str.w	r9, [sp, #60]	; 0x3c
 800077a:	a90b      	add	r1, sp, #44	; 0x2c
 800077c:	4824      	ldr	r0, [pc, #144]	; (8000810 <MX_GPIO_Init+0x2bc>)
 800077e:	f001 fe23 	bl	80023c8 <HAL_GPIO_Init>
 8000782:	f24f 031b 	movw	r3, #61467	; 0xf01b
 8000786:	930b      	str	r3, [sp, #44]	; 0x2c
 8000788:	940c      	str	r4, [sp, #48]	; 0x30
 800078a:	940d      	str	r4, [sp, #52]	; 0x34
 800078c:	a90b      	add	r1, sp, #44	; 0x2c
 800078e:	481f      	ldr	r0, [pc, #124]	; (800080c <MX_GPIO_Init+0x2b8>)
 8000790:	f001 fe1a 	bl	80023c8 <HAL_GPIO_Init>
 8000794:	f24c 7303 	movw	r3, #50947	; 0xc703
 8000798:	930b      	str	r3, [sp, #44]	; 0x2c
 800079a:	950c      	str	r5, [sp, #48]	; 0x30
 800079c:	940d      	str	r4, [sp, #52]	; 0x34
 800079e:	960e      	str	r6, [sp, #56]	; 0x38
 80007a0:	f8cd 903c 	str.w	r9, [sp, #60]	; 0x3c
 80007a4:	a90b      	add	r1, sp, #44	; 0x2c
 80007a6:	481c      	ldr	r0, [pc, #112]	; (8000818 <MX_GPIO_Init+0x2c4>)
 80007a8:	f001 fe0e 	bl	80023c8 <HAL_GPIO_Init>
 80007ac:	f640 0308 	movw	r3, #2056	; 0x808
 80007b0:	930b      	str	r3, [sp, #44]	; 0x2c
 80007b2:	950c      	str	r5, [sp, #48]	; 0x30
 80007b4:	940d      	str	r4, [sp, #52]	; 0x34
 80007b6:	940e      	str	r4, [sp, #56]	; 0x38
 80007b8:	960f      	str	r6, [sp, #60]	; 0x3c
 80007ba:	a90b      	add	r1, sp, #44	; 0x2c
 80007bc:	4817      	ldr	r0, [pc, #92]	; (800081c <MX_GPIO_Init+0x2c8>)
 80007be:	f001 fe03 	bl	80023c8 <HAL_GPIO_Init>
 80007c2:	f44f 63c0 	mov.w	r3, #1536	; 0x600
 80007c6:	930b      	str	r3, [sp, #44]	; 0x2c
 80007c8:	950c      	str	r5, [sp, #48]	; 0x30
 80007ca:	940d      	str	r4, [sp, #52]	; 0x34
 80007cc:	960e      	str	r6, [sp, #56]	; 0x38
 80007ce:	2309      	movs	r3, #9
 80007d0:	930f      	str	r3, [sp, #60]	; 0x3c
 80007d2:	a90b      	add	r1, sp, #44	; 0x2c
 80007d4:	4811      	ldr	r0, [pc, #68]	; (800081c <MX_GPIO_Init+0x2c8>)
 80007d6:	f001 fdf7 	bl	80023c8 <HAL_GPIO_Init>
 80007da:	f44f 5380 	mov.w	r3, #4096	; 0x1000
 80007de:	930b      	str	r3, [sp, #44]	; 0x2c
 80007e0:	950c      	str	r5, [sp, #48]	; 0x30
 80007e2:	940d      	str	r4, [sp, #52]	; 0x34
 80007e4:	940e      	str	r4, [sp, #56]	; 0x38
 80007e6:	2305      	movs	r3, #5
 80007e8:	930f      	str	r3, [sp, #60]	; 0x3c
 80007ea:	a90b      	add	r1, sp, #44	; 0x2c
 80007ec:	480c      	ldr	r0, [pc, #48]	; (8000820 <MX_GPIO_Init+0x2cc>)
 80007ee:	f001 fdeb 	bl	80023c8 <HAL_GPIO_Init>
 80007f2:	f44f 4351 	mov.w	r3, #53504	; 0xd100
 80007f6:	930b      	str	r3, [sp, #44]	; 0x2c
 80007f8:	940c      	str	r4, [sp, #48]	; 0x30
 80007fa:	940d      	str	r4, [sp, #52]	; 0x34
 80007fc:	a90b      	add	r1, sp, #44	; 0x2c
 80007fe:	4809      	ldr	r0, [pc, #36]	; (8000824 <MX_GPIO_Init+0x2d0>)
 8000800:	f001 fde2 	bl	80023c8 <HAL_GPIO_Init>
 8000804:	e012      	b.n	800082c <MX_GPIO_Init+0x2d8>
 8000806:	bf00      	nop
 8000808:	40023800 	andmi	r3, r2, r0, lsl #16
 800080c:	40022400 	andmi	r2, r2, r0, lsl #8
 8000810:	40021800 	andmi	r1, r2, r0, lsl #16
 8000814:	40020400 	andmi	r0, r2, r0, lsl #8
 8000818:	40020c00 	andmi	r0, r2, r0, lsl #24
 800081c:	40020800 	andmi	r0, r2, r0, lsl #16
 8000820:	40020000 	andmi	r0, r2, r0
 8000824:	40022000 	andmi	r2, r2, r0
 8000828:	40021000 	andmi	r1, r2, r0
 800082c:	f240 63ff 	movw	r3, #1791	; 0x6ff
 8000830:	930b      	str	r3, [sp, #44]	; 0x2c
 8000832:	950c      	str	r5, [sp, #48]	; 0x30
 8000834:	940d      	str	r4, [sp, #52]	; 0x34
 8000836:	960e      	str	r6, [sp, #56]	; 0x38
 8000838:	f8cd 903c 	str.w	r9, [sp, #60]	; 0x3c
 800083c:	a90b      	add	r1, sp, #44	; 0x2c
 800083e:	48a1      	ldr	r0, [pc, #644]	; (8000ac4 <MX_GPIO_Init+0x570>)
 8000840:	f001 fdc2 	bl	80023c8 <HAL_GPIO_Init>
 8000844:	23f8      	movs	r3, #248	; 0xf8
 8000846:	930b      	str	r3, [sp, #44]	; 0x2c
 8000848:	940c      	str	r4, [sp, #48]	; 0x30
 800084a:	940d      	str	r4, [sp, #52]	; 0x34
 800084c:	a90b      	add	r1, sp, #44	; 0x2c
 800084e:	489e      	ldr	r0, [pc, #632]	; (8000ac8 <MX_GPIO_Init+0x574>)
 8000850:	f001 fdba 	bl	80023c8 <HAL_GPIO_Init>
 8000854:	f44f 5380 	mov.w	r3, #4096	; 0x1000
 8000858:	930b      	str	r3, [sp, #44]	; 0x2c
 800085a:	950c      	str	r5, [sp, #48]	; 0x30
 800085c:	940d      	str	r4, [sp, #52]	; 0x34
 800085e:	940e      	str	r4, [sp, #56]	; 0x38
 8000860:	2307      	movs	r3, #7
 8000862:	930f      	str	r3, [sp, #60]	; 0x3c
 8000864:	a90b      	add	r1, sp, #44	; 0x2c
 8000866:	4899      	ldr	r0, [pc, #612]	; (8000acc <MX_GPIO_Init+0x578>)
 8000868:	f001 fdae 	bl	80023c8 <HAL_GPIO_Init>
 800086c:	f44f 63c0 	mov.w	r3, #1536	; 0x600
 8000870:	930b      	str	r3, [sp, #44]	; 0x2c
 8000872:	950c      	str	r5, [sp, #48]	; 0x30
 8000874:	940d      	str	r4, [sp, #52]	; 0x34
 8000876:	960e      	str	r6, [sp, #56]	; 0x38
 8000878:	f8cd b03c 	str.w	fp, [sp, #60]	; 0x3c
 800087c:	a90b      	add	r1, sp, #44	; 0x2c
 800087e:	4893      	ldr	r0, [pc, #588]	; (8000acc <MX_GPIO_Init+0x578>)
 8000880:	f001 fda2 	bl	80023c8 <HAL_GPIO_Init>
 8000884:	2330      	movs	r3, #48	; 0x30
 8000886:	930b      	str	r3, [sp, #44]	; 0x2c
 8000888:	940c      	str	r4, [sp, #48]	; 0x30
 800088a:	940d      	str	r4, [sp, #52]	; 0x34
 800088c:	a90b      	add	r1, sp, #44	; 0x2c
 800088e:	4890      	ldr	r0, [pc, #576]	; (8000ad0 <MX_GPIO_Init+0x57c>)
 8000890:	f001 fd9a 	bl	80023c8 <HAL_GPIO_Init>
 8000894:	2308      	movs	r3, #8
 8000896:	930b      	str	r3, [sp, #44]	; 0x2c
 8000898:	950c      	str	r5, [sp, #48]	; 0x30
 800089a:	940d      	str	r4, [sp, #52]	; 0x34
 800089c:	940e      	str	r4, [sp, #56]	; 0x38
 800089e:	960f      	str	r6, [sp, #60]	; 0x3c
 80008a0:	a90b      	add	r1, sp, #44	; 0x2c
 80008a2:	488b      	ldr	r0, [pc, #556]	; (8000ad0 <MX_GPIO_Init+0x57c>)
 80008a4:	f001 fd90 	bl	80023c8 <HAL_GPIO_Init>
 80008a8:	f44f 6300 	mov.w	r3, #2048	; 0x800
 80008ac:	930b      	str	r3, [sp, #44]	; 0x2c
 80008ae:	950c      	str	r5, [sp, #48]	; 0x30
 80008b0:	940d      	str	r4, [sp, #52]	; 0x34
 80008b2:	960e      	str	r6, [sp, #56]	; 0x38
 80008b4:	2305      	movs	r3, #5
 80008b6:	930f      	str	r3, [sp, #60]	; 0x3c
 80008b8:	a90b      	add	r1, sp, #44	; 0x2c
 80008ba:	4886      	ldr	r0, [pc, #536]	; (8000ad4 <MX_GPIO_Init+0x580>)
 80008bc:	f001 fd84 	bl	80023c8 <HAL_GPIO_Init>
 80008c0:	f64f 033f 	movw	r3, #63551	; 0xf83f
 80008c4:	930b      	str	r3, [sp, #44]	; 0x2c
 80008c6:	950c      	str	r5, [sp, #48]	; 0x30
 80008c8:	940d      	str	r4, [sp, #52]	; 0x34
 80008ca:	960e      	str	r6, [sp, #56]	; 0x38
 80008cc:	f8cd 903c 	str.w	r9, [sp, #60]	; 0x3c
 80008d0:	a90b      	add	r1, sp, #44	; 0x2c
 80008d2:	4881      	ldr	r0, [pc, #516]	; (8000ad8 <MX_GPIO_Init+0x584>)
 80008d4:	f001 fd78 	bl	80023c8 <HAL_GPIO_Init>
 80008d8:	970b      	str	r7, [sp, #44]	; 0x2c
 80008da:	950c      	str	r5, [sp, #48]	; 0x30
 80008dc:	940d      	str	r4, [sp, #52]	; 0x34
 80008de:	960e      	str	r6, [sp, #56]	; 0x38
 80008e0:	2308      	movs	r3, #8
 80008e2:	930f      	str	r3, [sp, #60]	; 0x3c
 80008e4:	a90b      	add	r1, sp, #44	; 0x2c
 80008e6:	487a      	ldr	r0, [pc, #488]	; (8000ad0 <MX_GPIO_Init+0x57c>)
 80008e8:	f001 fd6e 	bl	80023c8 <HAL_GPIO_Init>
 80008ec:	f64f 732c 	movw	r3, #65324	; 0xff2c
 80008f0:	930b      	str	r3, [sp, #44]	; 0x2c
 80008f2:	950c      	str	r5, [sp, #48]	; 0x30
 80008f4:	940d      	str	r4, [sp, #52]	; 0x34
 80008f6:	960e      	str	r6, [sp, #56]	; 0x38
 80008f8:	f8cd 903c 	str.w	r9, [sp, #60]	; 0x3c
 80008fc:	a90b      	add	r1, sp, #44	; 0x2c
 80008fe:	4877      	ldr	r0, [pc, #476]	; (8000adc <MX_GPIO_Init+0x588>)
 8000900:	f001 fd62 	bl	80023c8 <HAL_GPIO_Init>
 8000904:	f44f 6300 	mov.w	r3, #2048	; 0x800
 8000908:	930b      	str	r3, [sp, #44]	; 0x2c
 800090a:	950c      	str	r5, [sp, #48]	; 0x30
 800090c:	940d      	str	r4, [sp, #52]	; 0x34
 800090e:	960e      	str	r6, [sp, #56]	; 0x38
 8000910:	f8cd 803c 	str.w	r8, [sp, #60]	; 0x3c
 8000914:	a90b      	add	r1, sp, #44	; 0x2c
 8000916:	486b      	ldr	r0, [pc, #428]	; (8000ac4 <MX_GPIO_Init+0x570>)
 8000918:	f001 fd56 	bl	80023c8 <HAL_GPIO_Init>
 800091c:	f44f 7380 	mov.w	r3, #256	; 0x100
 8000920:	930b      	str	r3, [sp, #44]	; 0x2c
 8000922:	950c      	str	r5, [sp, #48]	; 0x30
 8000924:	940d      	str	r4, [sp, #52]	; 0x34
 8000926:	940e      	str	r4, [sp, #56]	; 0x38
 8000928:	940f      	str	r4, [sp, #60]	; 0x3c
 800092a:	a90b      	add	r1, sp, #44	; 0x2c
 800092c:	4869      	ldr	r0, [pc, #420]	; (8000ad4 <MX_GPIO_Init+0x580>)
 800092e:	f001 fd4b 	bl	80023c8 <HAL_GPIO_Init>
 8000932:	f44f 5900 	mov.w	r9, #8192	; 0x2000
 8000936:	f8cd 902c 	str.w	r9, [sp, #44]	; 0x2c
 800093a:	4b69      	ldr	r3, [pc, #420]	; (8000ae0 <MX_GPIO_Init+0x58c>)
 800093c:	930c      	str	r3, [sp, #48]	; 0x30
 800093e:	940d      	str	r4, [sp, #52]	; 0x34
 8000940:	a90b      	add	r1, sp, #44	; 0x2c
 8000942:	4860      	ldr	r0, [pc, #384]	; (8000ac4 <MX_GPIO_Init+0x570>)
 8000944:	f001 fd40 	bl	80023c8 <HAL_GPIO_Init>
 8000948:	f44f 7380 	mov.w	r3, #256	; 0x100
 800094c:	930b      	str	r3, [sp, #44]	; 0x2c
 800094e:	950c      	str	r5, [sp, #48]	; 0x30
 8000950:	940d      	str	r4, [sp, #52]	; 0x34
 8000952:	940e      	str	r4, [sp, #56]	; 0x38
 8000954:	950f      	str	r5, [sp, #60]	; 0x3c
 8000956:	a90b      	add	r1, sp, #44	; 0x2c
 8000958:	4862      	ldr	r0, [pc, #392]	; (8000ae4 <MX_GPIO_Init+0x590>)
 800095a:	f001 fd35 	bl	80023c8 <HAL_GPIO_Init>
 800095e:	23c0      	movs	r3, #192	; 0xc0
 8000960:	930b      	str	r3, [sp, #44]	; 0x2c
 8000962:	950c      	str	r5, [sp, #48]	; 0x30
 8000964:	940d      	str	r4, [sp, #52]	; 0x34
 8000966:	960e      	str	r6, [sp, #56]	; 0x38
 8000968:	2308      	movs	r3, #8
 800096a:	930f      	str	r3, [sp, #60]	; 0x3c
 800096c:	a90b      	add	r1, sp, #44	; 0x2c
 800096e:	485d      	ldr	r0, [pc, #372]	; (8000ae4 <MX_GPIO_Init+0x590>)
 8000970:	f001 fd2a 	bl	80023c8 <HAL_GPIO_Init>
 8000974:	2310      	movs	r3, #16
 8000976:	930b      	str	r3, [sp, #44]	; 0x2c
 8000978:	950c      	str	r5, [sp, #48]	; 0x30
 800097a:	940d      	str	r4, [sp, #52]	; 0x34
 800097c:	960e      	str	r6, [sp, #56]	; 0x38
 800097e:	f8cd 803c 	str.w	r8, [sp, #60]	; 0x3c
 8000982:	a90b      	add	r1, sp, #44	; 0x2c
 8000984:	4855      	ldr	r0, [pc, #340]	; (8000adc <MX_GPIO_Init+0x588>)
 8000986:	f001 fd1f 	bl	80023c8 <HAL_GPIO_Init>
 800098a:	2380      	movs	r3, #128	; 0x80
 800098c:	930b      	str	r3, [sp, #44]	; 0x2c
 800098e:	950c      	str	r5, [sp, #48]	; 0x30
 8000990:	940d      	str	r4, [sp, #52]	; 0x34
 8000992:	940e      	str	r4, [sp, #56]	; 0x38
 8000994:	2306      	movs	r3, #6
 8000996:	930f      	str	r3, [sp, #60]	; 0x3c
 8000998:	a90b      	add	r1, sp, #44	; 0x2c
 800099a:	484c      	ldr	r0, [pc, #304]	; (8000acc <MX_GPIO_Init+0x578>)
 800099c:	f001 fd14 	bl	80023c8 <HAL_GPIO_Init>
 80009a0:	2348      	movs	r3, #72	; 0x48
 80009a2:	930b      	str	r3, [sp, #44]	; 0x2c
 80009a4:	940c      	str	r4, [sp, #48]	; 0x30
 80009a6:	940d      	str	r4, [sp, #52]	; 0x34
 80009a8:	a90b      	add	r1, sp, #44	; 0x2c
 80009aa:	4848      	ldr	r0, [pc, #288]	; (8000acc <MX_GPIO_Init+0x578>)
 80009ac:	f001 fd0c 	bl	80023c8 <HAL_GPIO_Init>
 80009b0:	2380      	movs	r3, #128	; 0x80
 80009b2:	930b      	str	r3, [sp, #44]	; 0x2c
 80009b4:	950c      	str	r5, [sp, #48]	; 0x30
 80009b6:	940d      	str	r4, [sp, #52]	; 0x34
 80009b8:	940e      	str	r4, [sp, #56]	; 0x38
 80009ba:	960f      	str	r6, [sp, #60]	; 0x3c
 80009bc:	a90b      	add	r1, sp, #44	; 0x2c
 80009be:	4846      	ldr	r0, [pc, #280]	; (8000ad8 <MX_GPIO_Init+0x584>)
 80009c0:	f001 fd02 	bl	80023c8 <HAL_GPIO_Init>
 80009c4:	2340      	movs	r3, #64	; 0x40
 80009c6:	930b      	str	r3, [sp, #44]	; 0x2c
 80009c8:	950c      	str	r5, [sp, #48]	; 0x30
 80009ca:	940d      	str	r4, [sp, #52]	; 0x34
 80009cc:	940e      	str	r4, [sp, #56]	; 0x38
 80009ce:	960f      	str	r6, [sp, #60]	; 0x3c
 80009d0:	a90b      	add	r1, sp, #44	; 0x2c
 80009d2:	4841      	ldr	r0, [pc, #260]	; (8000ad8 <MX_GPIO_Init+0x584>)
 80009d4:	f001 fcf8 	bl	80023c8 <HAL_GPIO_Init>
 80009d8:	f44f 63e0 	mov.w	r3, #1792	; 0x700
 80009dc:	930b      	str	r3, [sp, #44]	; 0x2c
 80009de:	960c      	str	r6, [sp, #48]	; 0x30
 80009e0:	940d      	str	r4, [sp, #52]	; 0x34
 80009e2:	a90b      	add	r1, sp, #44	; 0x2c
 80009e4:	483c      	ldr	r0, [pc, #240]	; (8000ad8 <MX_GPIO_Init+0x584>)
 80009e6:	f001 fcef 	bl	80023c8 <HAL_GPIO_Init>
 80009ea:	f8cd a02c 	str.w	sl, [sp, #44]	; 0x2c
 80009ee:	950c      	str	r5, [sp, #48]	; 0x30
 80009f0:	940d      	str	r4, [sp, #52]	; 0x34
 80009f2:	960e      	str	r6, [sp, #56]	; 0x38
 80009f4:	f8cd 803c 	str.w	r8, [sp, #60]	; 0x3c
 80009f8:	a90b      	add	r1, sp, #44	; 0x2c
 80009fa:	483a      	ldr	r0, [pc, #232]	; (8000ae4 <MX_GPIO_Init+0x590>)
 80009fc:	f001 fce4 	bl	80023c8 <HAL_GPIO_Init>
 8000a00:	2332      	movs	r3, #50	; 0x32
 8000a02:	930b      	str	r3, [sp, #44]	; 0x2c
 8000a04:	950c      	str	r5, [sp, #48]	; 0x30
 8000a06:	940d      	str	r4, [sp, #52]	; 0x34
 8000a08:	960e      	str	r6, [sp, #56]	; 0x38
 8000a0a:	f8cd b03c 	str.w	fp, [sp, #60]	; 0x3c
 8000a0e:	a90b      	add	r1, sp, #44	; 0x2c
 8000a10:	4834      	ldr	r0, [pc, #208]	; (8000ae4 <MX_GPIO_Init+0x590>)
 8000a12:	f001 fcd9 	bl	80023c8 <HAL_GPIO_Init>
 8000a16:	970b      	str	r7, [sp, #44]	; 0x2c
 8000a18:	960c      	str	r6, [sp, #48]	; 0x30
 8000a1a:	940d      	str	r4, [sp, #52]	; 0x34
 8000a1c:	a90b      	add	r1, sp, #44	; 0x2c
 8000a1e:	4831      	ldr	r0, [pc, #196]	; (8000ae4 <MX_GPIO_Init+0x590>)
 8000a20:	f001 fcd2 	bl	80023c8 <HAL_GPIO_Init>
 8000a24:	970b      	str	r7, [sp, #44]	; 0x2c
 8000a26:	950c      	str	r5, [sp, #48]	; 0x30
 8000a28:	940d      	str	r4, [sp, #52]	; 0x34
 8000a2a:	960e      	str	r6, [sp, #56]	; 0x38
 8000a2c:	2309      	movs	r3, #9
 8000a2e:	930f      	str	r3, [sp, #60]	; 0x3c
 8000a30:	a90b      	add	r1, sp, #44	; 0x2c
 8000a32:	482d      	ldr	r0, [pc, #180]	; (8000ae8 <MX_GPIO_Init+0x594>)
 8000a34:	f001 fcc8 	bl	80023c8 <HAL_GPIO_Init>
 8000a38:	f44f 5380 	mov.w	r3, #4096	; 0x1000
 8000a3c:	930b      	str	r3, [sp, #44]	; 0x2c
 8000a3e:	2312      	movs	r3, #18
 8000a40:	930c      	str	r3, [sp, #48]	; 0x30
 8000a42:	f8cd a034 	str.w	sl, [sp, #52]	; 0x34
 8000a46:	960e      	str	r6, [sp, #56]	; 0x38
 8000a48:	970f      	str	r7, [sp, #60]	; 0x3c
 8000a4a:	a90b      	add	r1, sp, #44	; 0x2c
 8000a4c:	4820      	ldr	r0, [pc, #128]	; (8000ad0 <MX_GPIO_Init+0x57c>)
 8000a4e:	f001 fcbb 	bl	80023c8 <HAL_GPIO_Init>
 8000a52:	f8cd 902c 	str.w	r9, [sp, #44]	; 0x2c
 8000a56:	950c      	str	r5, [sp, #48]	; 0x30
 8000a58:	940d      	str	r4, [sp, #52]	; 0x34
 8000a5a:	960e      	str	r6, [sp, #56]	; 0x38
 8000a5c:	2309      	movs	r3, #9
 8000a5e:	930f      	str	r3, [sp, #60]	; 0x3c
 8000a60:	a90b      	add	r1, sp, #44	; 0x2c
 8000a62:	481b      	ldr	r0, [pc, #108]	; (8000ad0 <MX_GPIO_Init+0x57c>)
 8000a64:	f001 fcb0 	bl	80023c8 <HAL_GPIO_Init>
 8000a68:	2320      	movs	r3, #32
 8000a6a:	930b      	str	r3, [sp, #44]	; 0x2c
 8000a6c:	f8cd a030 	str.w	sl, [sp, #48]	; 0x30
 8000a70:	940d      	str	r4, [sp, #52]	; 0x34
 8000a72:	940e      	str	r4, [sp, #56]	; 0x38
 8000a74:	a90b      	add	r1, sp, #44	; 0x2c
 8000a76:	481d      	ldr	r0, [pc, #116]	; (8000aec <MX_GPIO_Init+0x598>)
 8000a78:	f001 fca6 	bl	80023c8 <HAL_GPIO_Init>
 8000a7c:	2386      	movs	r3, #134	; 0x86
 8000a7e:	930b      	str	r3, [sp, #44]	; 0x2c
 8000a80:	950c      	str	r5, [sp, #48]	; 0x30
 8000a82:	940d      	str	r4, [sp, #52]	; 0x34
 8000a84:	960e      	str	r6, [sp, #56]	; 0x38
 8000a86:	f8cd b03c 	str.w	fp, [sp, #60]	; 0x3c
 8000a8a:	a90b      	add	r1, sp, #44	; 0x2c
 8000a8c:	4811      	ldr	r0, [pc, #68]	; (8000ad4 <MX_GPIO_Init+0x580>)
 8000a8e:	f001 fc9b 	bl	80023c8 <HAL_GPIO_Init>
 8000a92:	f8cd a02c 	str.w	sl, [sp, #44]	; 0x2c
 8000a96:	4b16      	ldr	r3, [pc, #88]	; (8000af0 <MX_GPIO_Init+0x59c>)
 8000a98:	930c      	str	r3, [sp, #48]	; 0x30
 8000a9a:	940d      	str	r4, [sp, #52]	; 0x34
 8000a9c:	a90b      	add	r1, sp, #44	; 0x2c
 8000a9e:	480d      	ldr	r0, [pc, #52]	; (8000ad4 <MX_GPIO_Init+0x580>)
 8000aa0:	f001 fc92 	bl	80023c8 <HAL_GPIO_Init>
 8000aa4:	2350      	movs	r3, #80	; 0x50
 8000aa6:	930b      	str	r3, [sp, #44]	; 0x2c
 8000aa8:	960c      	str	r6, [sp, #48]	; 0x30
 8000aaa:	940d      	str	r4, [sp, #52]	; 0x34
 8000aac:	a90b      	add	r1, sp, #44	; 0x2c
 8000aae:	4809      	ldr	r0, [pc, #36]	; (8000ad4 <MX_GPIO_Init+0x580>)
 8000ab0:	f001 fc8a 	bl	80023c8 <HAL_GPIO_Init>
 8000ab4:	f44f 6300 	mov.w	r3, #2048	; 0x800
 8000ab8:	930b      	str	r3, [sp, #44]	; 0x2c
 8000aba:	950c      	str	r5, [sp, #48]	; 0x30
 8000abc:	940d      	str	r4, [sp, #52]	; 0x34
 8000abe:	940e      	str	r4, [sp, #56]	; 0x38
 8000ac0:	e018      	b.n	8000af4 <MX_GPIO_Init+0x5a0>
 8000ac2:	bf00      	nop
 8000ac4:	40022000 	andmi	r2, r2, r0
 8000ac8:	40022800 	andmi	r2, r2, r0, lsl #16
 8000acc:	40021800 	andmi	r1, r2, r0, lsl #16
 8000ad0:	40020c00 	andmi	r0, r2, r0, lsl #24
 8000ad4:	40020000 	andmi	r0, r2, r0
 8000ad8:	40021400 	andmi	r1, r2, r0, lsl #8
 8000adc:	40021c00 	andmi	r1, r2, r0, lsl #24
 8000ae0:	10120000 	andsne	r0, r2, r0
 8000ae4:	40020800 	andmi	r0, r2, r0, lsl #16
 8000ae8:	40020400 	andmi	r0, r2, r0, lsl #8
 8000aec:	40022400 	andmi	r2, r2, r0, lsl #8
 8000af0:	10110000 	andsne	r0, r1, r0
 8000af4:	f8cd 803c 	str.w	r8, [sp, #60]	; 0x3c
 8000af8:	a90b      	add	r1, sp, #44	; 0x2c
 8000afa:	481d      	ldr	r0, [pc, #116]	; (8000b70 <MX_GPIO_Init+0x61c>)
 8000afc:	f001 fc64 	bl	80023c8 <HAL_GPIO_Init>
 8000b00:	2380      	movs	r3, #128	; 0x80
 8000b02:	930b      	str	r3, [sp, #44]	; 0x2c
 8000b04:	940c      	str	r4, [sp, #48]	; 0x30
 8000b06:	940d      	str	r4, [sp, #52]	; 0x34
 8000b08:	a90b      	add	r1, sp, #44	; 0x2c
 8000b0a:	481a      	ldr	r0, [pc, #104]	; (8000b74 <MX_GPIO_Init+0x620>)
 8000b0c:	f001 fc5c 	bl	80023c8 <HAL_GPIO_Init>
 8000b10:	2328      	movs	r3, #40	; 0x28
 8000b12:	930b      	str	r3, [sp, #44]	; 0x2c
 8000b14:	950c      	str	r5, [sp, #48]	; 0x30
 8000b16:	940d      	str	r4, [sp, #52]	; 0x34
 8000b18:	960e      	str	r6, [sp, #56]	; 0x38
 8000b1a:	f8cd 803c 	str.w	r8, [sp, #60]	; 0x3c
 8000b1e:	a90b      	add	r1, sp, #44	; 0x2c
 8000b20:	4815      	ldr	r0, [pc, #84]	; (8000b78 <MX_GPIO_Init+0x624>)
 8000b22:	f001 fc51 	bl	80023c8 <HAL_GPIO_Init>
 8000b26:	970b      	str	r7, [sp, #44]	; 0x2c
 8000b28:	950c      	str	r5, [sp, #48]	; 0x30
 8000b2a:	940d      	str	r4, [sp, #52]	; 0x34
 8000b2c:	940e      	str	r4, [sp, #56]	; 0x38
 8000b2e:	230d      	movs	r3, #13
 8000b30:	930f      	str	r3, [sp, #60]	; 0x3c
 8000b32:	a90b      	add	r1, sp, #44	; 0x2c
 8000b34:	4811      	ldr	r0, [pc, #68]	; (8000b7c <MX_GPIO_Init+0x628>)
 8000b36:	f001 fc47 	bl	80023c8 <HAL_GPIO_Init>
 8000b3a:	2340      	movs	r3, #64	; 0x40
 8000b3c:	930b      	str	r3, [sp, #44]	; 0x2c
 8000b3e:	950c      	str	r5, [sp, #48]	; 0x30
 8000b40:	940d      	str	r4, [sp, #52]	; 0x34
 8000b42:	940e      	str	r4, [sp, #56]	; 0x38
 8000b44:	2309      	movs	r3, #9
 8000b46:	930f      	str	r3, [sp, #60]	; 0x3c
 8000b48:	a90b      	add	r1, sp, #44	; 0x2c
 8000b4a:	480a      	ldr	r0, [pc, #40]	; (8000b74 <MX_GPIO_Init+0x620>)
 8000b4c:	f001 fc3c 	bl	80023c8 <HAL_GPIO_Init>
 8000b50:	f44f 4340 	mov.w	r3, #49152	; 0xc000
 8000b54:	930b      	str	r3, [sp, #44]	; 0x2c
 8000b56:	950c      	str	r5, [sp, #48]	; 0x30
 8000b58:	940d      	str	r4, [sp, #52]	; 0x34
 8000b5a:	940e      	str	r4, [sp, #56]	; 0x38
 8000b5c:	2305      	movs	r3, #5
 8000b5e:	930f      	str	r3, [sp, #60]	; 0x3c
 8000b60:	a90b      	add	r1, sp, #44	; 0x2c
 8000b62:	4807      	ldr	r0, [pc, #28]	; (8000b80 <MX_GPIO_Init+0x62c>)
 8000b64:	f001 fc30 	bl	80023c8 <HAL_GPIO_Init>
 8000b68:	b011      	add	sp, #68	; 0x44
 8000b6a:	e8bd 8ff0 	ldmia.w	sp!, {r4, r5, r6, r7, r8, r9, sl, fp, pc}
 8000b6e:	bf00      	nop
 8000b70:	40020c00 	andmi	r0, r2, r0, lsl #24
 8000b74:	40021c00 	andmi	r1, r2, r0, lsl #24
 8000b78:	40020000 	andmi	r0, r2, r0
 8000b7c:	40022400 	andmi	r2, r2, r0, lsl #8
 8000b80:	40020400 	andmi	r0, r2, r0, lsl #8

08000b84 <MX_USART1_UART_Init>:
 8000b84:	b508      	push	{r3, lr}
 8000b86:	4809      	ldr	r0, [pc, #36]	; (8000bac <MX_USART1_UART_Init+0x28>)
 8000b88:	4b09      	ldr	r3, [pc, #36]	; (8000bb0 <MX_USART1_UART_Init+0x2c>)
 8000b8a:	6003      	str	r3, [r0, #0]
 8000b8c:	f44f 33e1 	mov.w	r3, #115200	; 0x1c200
 8000b90:	6043      	str	r3, [r0, #4]
 8000b92:	2300      	movs	r3, #0
 8000b94:	6083      	str	r3, [r0, #8]
 8000b96:	60c3      	str	r3, [r0, #12]
 8000b98:	6103      	str	r3, [r0, #16]
 8000b9a:	220c      	movs	r2, #12
 8000b9c:	6142      	str	r2, [r0, #20]
 8000b9e:	6183      	str	r3, [r0, #24]
 8000ba0:	61c3      	str	r3, [r0, #28]
 8000ba2:	6203      	str	r3, [r0, #32]
 8000ba4:	6243      	str	r3, [r0, #36]	; 0x24
 8000ba6:	f000 fdaa 	bl	80016fe <HAL_UART_Init>
 8000baa:	bd08      	pop	{r3, pc}
 8000bac:	200025e0 	andcs	r2, r0, r0, ror #11
 8000bb0:	40011000 	andmi	r1, r1, r0

08000bb4 <StartDefaultTask>:
 8000bb4:	b508      	push	{r3, lr}
 8000bb6:	f44f 707a 	mov.w	r0, #1000	; 0x3e8
 8000bba:	f002 f90b 	bl	8002dd4 <osDelay>
 8000bbe:	e7fa      	b.n	8000bb6 <StartDefaultTask+0x2>

08000bc0 <SystemClock_Config>:
 8000bc0:	b530      	push	{r4, r5, lr}
 8000bc2:	b0b9      	sub	sp, #228	; 0xe4
 8000bc4:	2234      	movs	r2, #52	; 0x34
 8000bc6:	2100      	movs	r1, #0
 8000bc8:	a82b      	add	r0, sp, #172	; 0xac
 8000bca:	f002 faf1 	bl	80031b0 <memset>
 8000bce:	2400      	movs	r4, #0
 8000bd0:	9426      	str	r4, [sp, #152]	; 0x98
 8000bd2:	9427      	str	r4, [sp, #156]	; 0x9c
 8000bd4:	9428      	str	r4, [sp, #160]	; 0xa0
 8000bd6:	9429      	str	r4, [sp, #164]	; 0xa4
 8000bd8:	942a      	str	r4, [sp, #168]	; 0xa8
 8000bda:	2290      	movs	r2, #144	; 0x90
 8000bdc:	4621      	mov	r1, r4
 8000bde:	a802      	add	r0, sp, #8
 8000be0:	f002 fae6 	bl	80031b0 <memset>
 8000be4:	4b1e      	ldr	r3, [pc, #120]	; (8000c60 <SystemClock_Config+0xa0>)
 8000be6:	6c1a      	ldr	r2, [r3, #64]	; 0x40
 8000be8:	f042 5280 	orr.w	r2, r2, #268435456	; 0x10000000
 8000bec:	641a      	str	r2, [r3, #64]	; 0x40
 8000bee:	6c1b      	ldr	r3, [r3, #64]	; 0x40
 8000bf0:	f003 5380 	and.w	r3, r3, #268435456	; 0x10000000
 8000bf4:	9300      	str	r3, [sp, #0]
 8000bf6:	9b00      	ldr	r3, [sp, #0]
 8000bf8:	4a1a      	ldr	r2, [pc, #104]	; (8000c64 <SystemClock_Config+0xa4>)
 8000bfa:	6813      	ldr	r3, [r2, #0]
 8000bfc:	f423 4340 	bic.w	r3, r3, #49152	; 0xc000
 8000c00:	f443 4380 	orr.w	r3, r3, #16384	; 0x4000
 8000c04:	6013      	str	r3, [r2, #0]
 8000c06:	6813      	ldr	r3, [r2, #0]
 8000c08:	f403 4340 	and.w	r3, r3, #49152	; 0xc000
 8000c0c:	9301      	str	r3, [sp, #4]
 8000c0e:	9b01      	ldr	r3, [sp, #4]
 8000c10:	2502      	movs	r5, #2
 8000c12:	952b      	str	r5, [sp, #172]	; 0xac
 8000c14:	2301      	movs	r3, #1
 8000c16:	932e      	str	r3, [sp, #184]	; 0xb8
 8000c18:	2310      	movs	r3, #16
 8000c1a:	932f      	str	r3, [sp, #188]	; 0xbc
 8000c1c:	9531      	str	r5, [sp, #196]	; 0xc4
 8000c1e:	9432      	str	r4, [sp, #200]	; 0xc8
 8000c20:	2308      	movs	r3, #8
 8000c22:	9333      	str	r3, [sp, #204]	; 0xcc
 8000c24:	23c0      	movs	r3, #192	; 0xc0
 8000c26:	9334      	str	r3, [sp, #208]	; 0xd0
 8000c28:	2304      	movs	r3, #4
 8000c2a:	9335      	str	r3, [sp, #212]	; 0xd4
 8000c2c:	9336      	str	r3, [sp, #216]	; 0xd8
 8000c2e:	a82b      	add	r0, sp, #172	; 0xac
 8000c30:	f000 fd96 	bl	8001760 <HAL_RCC_OscConfig>
 8000c34:	230f      	movs	r3, #15
 8000c36:	9326      	str	r3, [sp, #152]	; 0x98
 8000c38:	9527      	str	r5, [sp, #156]	; 0x9c
 8000c3a:	9428      	str	r4, [sp, #160]	; 0xa0
 8000c3c:	f44f 53a0 	mov.w	r3, #5120	; 0x1400
 8000c40:	9329      	str	r3, [sp, #164]	; 0xa4
 8000c42:	f44f 5380 	mov.w	r3, #4096	; 0x1000
 8000c46:	932a      	str	r3, [sp, #168]	; 0xa8
 8000c48:	2103      	movs	r1, #3
 8000c4a:	a826      	add	r0, sp, #152	; 0x98
 8000c4c:	f000 ffc4 	bl	8001bd8 <HAL_RCC_ClockConfig>
 8000c50:	2340      	movs	r3, #64	; 0x40
 8000c52:	9302      	str	r3, [sp, #8]
 8000c54:	9413      	str	r4, [sp, #76]	; 0x4c
 8000c56:	a802      	add	r0, sp, #8
 8000c58:	f001 f8b4 	bl	8001dc4 <HAL_RCCEx_PeriphCLKConfig>
 8000c5c:	b039      	add	sp, #228	; 0xe4
 8000c5e:	bd30      	pop	{r4, r5, pc}
 8000c60:	40023800 	andmi	r3, r2, r0, lsl #16
 8000c64:	40007000 	andmi	r7, r0, r0

08000c68 <main>:
 8000c68:	b500      	push	{lr}
 8000c6a:	b089      	sub	sp, #36	; 0x24
 8000c6c:	f001 fca2 	bl	80025b4 <HAL_Init>
 8000c70:	f7ff ffa6 	bl	8000bc0 <SystemClock_Config>
 8000c74:	f7ff fc6e 	bl	8000554 <MX_GPIO_Init>
 8000c78:	f7ff ff84 	bl	8000b84 <MX_USART1_UART_Init>
 8000c7c:	ac01      	add	r4, sp, #4
 8000c7e:	4d08      	ldr	r5, [pc, #32]	; (8000ca0 <main+0x38>)
 8000c80:	cd0f      	ldmia	r5!, {r0, r1, r2, r3}
 8000c82:	c40f      	stmia	r4!, {r0, r1, r2, r3}
 8000c84:	e895 0007 	ldmia.w	r5, {r0, r1, r2}
 8000c88:	e884 0007 	stmia.w	r4, {r0, r1, r2}
 8000c8c:	2100      	movs	r1, #0
 8000c8e:	a801      	add	r0, sp, #4
 8000c90:	f002 f889 	bl	8002da6 <osThreadCreate>
 8000c94:	4b03      	ldr	r3, [pc, #12]	; (8000ca4 <main+0x3c>)
 8000c96:	6018      	str	r0, [r3, #0]
 8000c98:	f002 f880 	bl	8002d9c <osKernelStart>
 8000c9c:	e7fe      	b.n	8000c9c <main+0x34>
 8000c9e:	bf00      	nop
 8000ca0:	08004a98 	stmdaeq	r0, {r3, r4, r7, r9, fp, lr}
 8000ca4:	200025dc 	ldrdcs	r2, [r0], -ip

08000ca8 <HAL_TIM_PeriodElapsedCallback>:
 8000ca8:	b508      	push	{r3, lr}
 8000caa:	6803      	ldr	r3, [r0, #0]
 8000cac:	f1b3 4f80 	cmp.w	r3, #1073741824	; 0x40000000
 8000cb0:	d000      	beq.n	8000cb4 <HAL_TIM_PeriodElapsedCallback+0xc>
 8000cb2:	bd08      	pop	{r3, pc}
 8000cb4:	f001 fc8a 	bl	80025cc <HAL_IncTick>
 8000cb8:	e7fb      	b.n	8000cb2 <HAL_TIM_PeriodElapsedCallback+0xa>
	...

08000cbc <_sbrk>:
 8000cbc:	b508      	push	{r3, lr}
 8000cbe:	4603      	mov	r3, r0
 8000cc0:	4a0b      	ldr	r2, [pc, #44]	; (8000cf0 <_sbrk+0x34>)
 8000cc2:	6812      	ldr	r2, [r2, #0]
 8000cc4:	b142      	cbz	r2, 8000cd8 <_sbrk+0x1c>
 8000cc6:	4a0a      	ldr	r2, [pc, #40]	; (8000cf0 <_sbrk+0x34>)
 8000cc8:	6810      	ldr	r0, [r2, #0]
 8000cca:	4403      	add	r3, r0
 8000ccc:	466a      	mov	r2, sp
 8000cce:	4293      	cmp	r3, r2
 8000cd0:	d806      	bhi.n	8000ce0 <_sbrk+0x24>
 8000cd2:	4a07      	ldr	r2, [pc, #28]	; (8000cf0 <_sbrk+0x34>)
 8000cd4:	6013      	str	r3, [r2, #0]
 8000cd6:	bd08      	pop	{r3, pc}
 8000cd8:	4a05      	ldr	r2, [pc, #20]	; (8000cf0 <_sbrk+0x34>)
 8000cda:	4906      	ldr	r1, [pc, #24]	; (8000cf4 <_sbrk+0x38>)
 8000cdc:	6011      	str	r1, [r2, #0]
 8000cde:	e7f2      	b.n	8000cc6 <_sbrk+0xa>
 8000ce0:	f002 fa2e 	bl	8003140 <__errno>
 8000ce4:	230c      	movs	r3, #12
 8000ce6:	6003      	str	r3, [r0, #0]
 8000ce8:	f04f 30ff 	mov.w	r0, #4294967295	; 0xffffffff
 8000cec:	e7f3      	b.n	8000cd6 <_sbrk+0x1a>
 8000cee:	bf00      	nop
 8000cf0:	2000224c 	andcs	r2, r0, ip, asr #4
 8000cf4:	200026b8 			; <UNDEFINED> instruction: 0x200026b8

08000cf8 <NMI_Handler>:
 8000cf8:	4770      	bx	lr

08000cfa <HardFault_Handler>:
 8000cfa:	e7fe      	b.n	8000cfa <HardFault_Handler>

08000cfc <MemManage_Handler>:
 8000cfc:	e7fe      	b.n	8000cfc <MemManage_Handler>

08000cfe <BusFault_Handler>:
 8000cfe:	e7fe      	b.n	8000cfe <BusFault_Handler>

08000d00 <UsageFault_Handler>:
 8000d00:	e7fe      	b.n	8000d00 <UsageFault_Handler>

08000d02 <DebugMon_Handler>:
 8000d02:	4770      	bx	lr

08000d04 <TIM2_IRQHandler>:
 8000d04:	b508      	push	{r3, lr}
 8000d06:	4802      	ldr	r0, [pc, #8]	; (8000d10 <TIM2_IRQHandler+0xc>)
 8000d08:	f000 f904 	bl	8000f14 <HAL_TIM_IRQHandler>
 8000d0c:	bd08      	pop	{r3, pc}
 8000d0e:	bf00      	nop
 8000d10:	20002660 	andcs	r2, r0, r0, ror #12

08000d14 <HAL_MspInit>:
 8000d14:	b500      	push	{lr}
 8000d16:	b083      	sub	sp, #12
 8000d18:	4b0d      	ldr	r3, [pc, #52]	; (8000d50 <HAL_MspInit+0x3c>)
 8000d1a:	6c1a      	ldr	r2, [r3, #64]	; 0x40
 8000d1c:	f042 5280 	orr.w	r2, r2, #268435456	; 0x10000000
 8000d20:	641a      	str	r2, [r3, #64]	; 0x40
 8000d22:	6c1a      	ldr	r2, [r3, #64]	; 0x40
 8000d24:	f002 5280 	and.w	r2, r2, #268435456	; 0x10000000
 8000d28:	9200      	str	r2, [sp, #0]
 8000d2a:	9a00      	ldr	r2, [sp, #0]
 8000d2c:	6c5a      	ldr	r2, [r3, #68]	; 0x44
 8000d2e:	f442 4280 	orr.w	r2, r2, #16384	; 0x4000
 8000d32:	645a      	str	r2, [r3, #68]	; 0x44
 8000d34:	6c5b      	ldr	r3, [r3, #68]	; 0x44
 8000d36:	f403 4380 	and.w	r3, r3, #16384	; 0x4000
 8000d3a:	9301      	str	r3, [sp, #4]
 8000d3c:	9b01      	ldr	r3, [sp, #4]
 8000d3e:	2200      	movs	r2, #0
 8000d40:	210f      	movs	r1, #15
 8000d42:	f06f 0001 	mvn.w	r0, #1
 8000d46:	f000 f889 	bl	8000e5c <HAL_NVIC_SetPriority>
 8000d4a:	b003      	add	sp, #12
 8000d4c:	f85d fb04 	ldr.w	pc, [sp], #4
 8000d50:	40023800 	andmi	r3, r2, r0, lsl #16

08000d54 <HAL_UART_MspInit>:
 8000d54:	b500      	push	{lr}
 8000d56:	b089      	sub	sp, #36	; 0x24
 8000d58:	2300      	movs	r3, #0
 8000d5a:	9303      	str	r3, [sp, #12]
 8000d5c:	9304      	str	r3, [sp, #16]
 8000d5e:	9305      	str	r3, [sp, #20]
 8000d60:	9306      	str	r3, [sp, #24]
 8000d62:	9307      	str	r3, [sp, #28]
 8000d64:	6802      	ldr	r2, [r0, #0]
 8000d66:	f103 4380 	add.w	r3, r3, #1073741824	; 0x40000000
 8000d6a:	f503 3388 	add.w	r3, r3, #69632	; 0x11000
 8000d6e:	429a      	cmp	r2, r3
 8000d70:	d002      	beq.n	8000d78 <HAL_UART_MspInit+0x24>
 8000d72:	b009      	add	sp, #36	; 0x24
 8000d74:	f85d fb04 	ldr.w	pc, [sp], #4
 8000d78:	f503 3394 	add.w	r3, r3, #75776	; 0x12800
 8000d7c:	6c5a      	ldr	r2, [r3, #68]	; 0x44
 8000d7e:	f042 0210 	orr.w	r2, r2, #16
 8000d82:	645a      	str	r2, [r3, #68]	; 0x44
 8000d84:	6c5a      	ldr	r2, [r3, #68]	; 0x44
 8000d86:	f002 0210 	and.w	r2, r2, #16
 8000d8a:	9201      	str	r2, [sp, #4]
 8000d8c:	9a01      	ldr	r2, [sp, #4]
 8000d8e:	6b1a      	ldr	r2, [r3, #48]	; 0x30
 8000d90:	f042 0201 	orr.w	r2, r2, #1
 8000d94:	631a      	str	r2, [r3, #48]	; 0x30
 8000d96:	6b1b      	ldr	r3, [r3, #48]	; 0x30
 8000d98:	f003 0301 	and.w	r3, r3, #1
 8000d9c:	9302      	str	r3, [sp, #8]
 8000d9e:	9b02      	ldr	r3, [sp, #8]
 8000da0:	f44f 63c0 	mov.w	r3, #1536	; 0x600
 8000da4:	9303      	str	r3, [sp, #12]
 8000da6:	2302      	movs	r3, #2
 8000da8:	9304      	str	r3, [sp, #16]
 8000daa:	2303      	movs	r3, #3
 8000dac:	9306      	str	r3, [sp, #24]
 8000dae:	2307      	movs	r3, #7
 8000db0:	9307      	str	r3, [sp, #28]
 8000db2:	a903      	add	r1, sp, #12
 8000db4:	4801      	ldr	r0, [pc, #4]	; (8000dbc <HAL_UART_MspInit+0x68>)
 8000db6:	f001 fb07 	bl	80023c8 <HAL_GPIO_Init>
 8000dba:	e7da      	b.n	8000d72 <HAL_UART_MspInit+0x1e>
 8000dbc:	40020000 	andmi	r0, r2, r0

08000dc0 <HAL_InitTick>:
 8000dc0:	b500      	push	{lr}
 8000dc2:	b089      	sub	sp, #36	; 0x24
 8000dc4:	2200      	movs	r2, #0
 8000dc6:	4601      	mov	r1, r0
 8000dc8:	201c      	movs	r0, #28
 8000dca:	f000 f847 	bl	8000e5c <HAL_NVIC_SetPriority>
 8000dce:	201c      	movs	r0, #28
 8000dd0:	f000 f876 	bl	8000ec0 <HAL_NVIC_EnableIRQ>
 8000dd4:	4b15      	ldr	r3, [pc, #84]	; (8000e2c <HAL_InitTick+0x6c>)
 8000dd6:	6c1a      	ldr	r2, [r3, #64]	; 0x40
 8000dd8:	f042 0201 	orr.w	r2, r2, #1
 8000ddc:	641a      	str	r2, [r3, #64]	; 0x40
 8000dde:	6c1b      	ldr	r3, [r3, #64]	; 0x40
 8000de0:	f003 0301 	and.w	r3, r3, #1
 8000de4:	9301      	str	r3, [sp, #4]
 8000de6:	9b01      	ldr	r3, [sp, #4]
 8000de8:	a902      	add	r1, sp, #8
 8000dea:	a803      	add	r0, sp, #12
 8000dec:	f000 ffcc 	bl	8001d88 <HAL_RCC_GetClockConfig>
 8000df0:	f000 ffaa 	bl	8001d48 <HAL_RCC_GetPCLK1Freq>
 8000df4:	0043      	lsls	r3, r0, #1
 8000df6:	480e      	ldr	r0, [pc, #56]	; (8000e30 <HAL_InitTick+0x70>)
 8000df8:	fba0 2303 	umull	r2, r3, r0, r3
 8000dfc:	0c9b      	lsrs	r3, r3, #18
 8000dfe:	3b01      	subs	r3, #1
 8000e00:	480c      	ldr	r0, [pc, #48]	; (8000e34 <HAL_InitTick+0x74>)
 8000e02:	f04f 4280 	mov.w	r2, #1073741824	; 0x40000000
 8000e06:	6002      	str	r2, [r0, #0]
 8000e08:	f240 32e7 	movw	r2, #999	; 0x3e7
 8000e0c:	60c2      	str	r2, [r0, #12]
 8000e0e:	6043      	str	r3, [r0, #4]
 8000e10:	2300      	movs	r3, #0
 8000e12:	6103      	str	r3, [r0, #16]
 8000e14:	6083      	str	r3, [r0, #8]
 8000e16:	f000 f9d1 	bl	80011bc <HAL_TIM_Base_Init>
 8000e1a:	b118      	cbz	r0, 8000e24 <HAL_InitTick+0x64>
 8000e1c:	2001      	movs	r0, #1
 8000e1e:	b009      	add	sp, #36	; 0x24
 8000e20:	f85d fb04 	ldr.w	pc, [sp], #4
 8000e24:	4803      	ldr	r0, [pc, #12]	; (8000e34 <HAL_InitTick+0x74>)
 8000e26:	f000 f85b 	bl	8000ee0 <HAL_TIM_Base_Start_IT>
 8000e2a:	e7f8      	b.n	8000e1e <HAL_InitTick+0x5e>
 8000e2c:	40023800 	andmi	r3, r2, r0, lsl #16
 8000e30:	431bde83 	tstmi	fp, #2096	; 0x830
 8000e34:	20002660 	andcs	r2, r0, r0, ror #12

08000e38 <HAL_NVIC_SetPriorityGrouping>:
 8000e38:	4906      	ldr	r1, [pc, #24]	; (8000e54 <HAL_NVIC_SetPriorityGrouping+0x1c>)
 8000e3a:	68cb      	ldr	r3, [r1, #12]
 8000e3c:	f423 63e0 	bic.w	r3, r3, #1792	; 0x700
 8000e40:	041b      	lsls	r3, r3, #16
 8000e42:	0c1b      	lsrs	r3, r3, #16
 8000e44:	0200      	lsls	r0, r0, #8
 8000e46:	f400 60e0 	and.w	r0, r0, #1792	; 0x700
 8000e4a:	4303      	orrs	r3, r0
 8000e4c:	4a02      	ldr	r2, [pc, #8]	; (8000e58 <HAL_NVIC_SetPriorityGrouping+0x20>)
 8000e4e:	431a      	orrs	r2, r3
 8000e50:	60ca      	str	r2, [r1, #12]
 8000e52:	4770      	bx	lr
 8000e54:	e000ed00 	and	lr, r0, r0, lsl #26
 8000e58:	05fa0000 	ldrbeq	r0, [sl, #0]!

08000e5c <HAL_NVIC_SetPriority>:
 8000e5c:	b430      	push	{r4, r5}
 8000e5e:	4b15      	ldr	r3, [pc, #84]	; (8000eb4 <HAL_NVIC_SetPriority+0x58>)
 8000e60:	68db      	ldr	r3, [r3, #12]
 8000e62:	f3c3 2302 	ubfx	r3, r3, #8, #3
 8000e66:	f1c3 0407 	rsb	r4, r3, #7
 8000e6a:	2c04      	cmp	r4, #4
 8000e6c:	bf28      	it	cs
 8000e6e:	2404      	movcs	r4, #4
 8000e70:	1d1d      	adds	r5, r3, #4
 8000e72:	2d06      	cmp	r5, #6
 8000e74:	d901      	bls.n	8000e7a <HAL_NVIC_SetPriority+0x1e>
 8000e76:	3b03      	subs	r3, #3
 8000e78:	e000      	b.n	8000e7c <HAL_NVIC_SetPriority+0x20>
 8000e7a:	2300      	movs	r3, #0
 8000e7c:	f04f 35ff 	mov.w	r5, #4294967295	; 0xffffffff
 8000e80:	fa05 f404 	lsl.w	r4, r5, r4
 8000e84:	ea21 0104 	bic.w	r1, r1, r4
 8000e88:	4099      	lsls	r1, r3
 8000e8a:	fa05 f303 	lsl.w	r3, r5, r3
 8000e8e:	ea22 0303 	bic.w	r3, r2, r3
 8000e92:	4319      	orrs	r1, r3
 8000e94:	2800      	cmp	r0, #0
 8000e96:	db05      	blt.n	8000ea4 <HAL_NVIC_SetPriority+0x48>
 8000e98:	0109      	lsls	r1, r1, #4
 8000e9a:	b2c9      	uxtb	r1, r1
 8000e9c:	4b06      	ldr	r3, [pc, #24]	; (8000eb8 <HAL_NVIC_SetPriority+0x5c>)
 8000e9e:	5419      	strb	r1, [r3, r0]
 8000ea0:	bc30      	pop	{r4, r5}
 8000ea2:	4770      	bx	lr
 8000ea4:	f000 000f 	and.w	r0, r0, #15
 8000ea8:	0109      	lsls	r1, r1, #4
 8000eaa:	b2c9      	uxtb	r1, r1
 8000eac:	4b03      	ldr	r3, [pc, #12]	; (8000ebc <HAL_NVIC_SetPriority+0x60>)
 8000eae:	5419      	strb	r1, [r3, r0]
 8000eb0:	e7f6      	b.n	8000ea0 <HAL_NVIC_SetPriority+0x44>
 8000eb2:	bf00      	nop
 8000eb4:	e000ed00 	and	lr, r0, r0, lsl #26
 8000eb8:	e000e400 	and	lr, r0, r0, lsl #8
 8000ebc:	e000ed14 	and	lr, r0, r4, lsl sp

08000ec0 <HAL_NVIC_EnableIRQ>:
 8000ec0:	2800      	cmp	r0, #0
 8000ec2:	db07      	blt.n	8000ed4 <HAL_NVIC_EnableIRQ+0x14>
 8000ec4:	f000 021f 	and.w	r2, r0, #31
 8000ec8:	0940      	lsrs	r0, r0, #5
 8000eca:	2301      	movs	r3, #1
 8000ecc:	4093      	lsls	r3, r2
 8000ece:	4a02      	ldr	r2, [pc, #8]	; (8000ed8 <HAL_NVIC_EnableIRQ+0x18>)
 8000ed0:	f842 3020 	str.w	r3, [r2, r0, lsl #2]
 8000ed4:	4770      	bx	lr
 8000ed6:	bf00      	nop
 8000ed8:	e000e100 	and	lr, r0, r0, lsl #2

08000edc <HAL_TIM_Base_MspInit>:
 8000edc:	4770      	bx	lr
	...

08000ee0 <HAL_TIM_Base_Start_IT>:
 8000ee0:	6802      	ldr	r2, [r0, #0]
 8000ee2:	68d3      	ldr	r3, [r2, #12]
 8000ee4:	f043 0301 	orr.w	r3, r3, #1
 8000ee8:	60d3      	str	r3, [r2, #12]
 8000eea:	6802      	ldr	r2, [r0, #0]
 8000eec:	6891      	ldr	r1, [r2, #8]
 8000eee:	4b06      	ldr	r3, [pc, #24]	; (8000f08 <HAL_TIM_Base_Start_IT+0x28>)
 8000ef0:	400b      	ands	r3, r1
 8000ef2:	2b06      	cmp	r3, #6
 8000ef4:	bf18      	it	ne
 8000ef6:	f5b3 3f80 	cmpne.w	r3, #65536	; 0x10000
 8000efa:	d003      	beq.n	8000f04 <HAL_TIM_Base_Start_IT+0x24>
 8000efc:	6813      	ldr	r3, [r2, #0]
 8000efe:	f043 0301 	orr.w	r3, r3, #1
 8000f02:	6013      	str	r3, [r2, #0]
 8000f04:	2000      	movs	r0, #0
 8000f06:	4770      	bx	lr
 8000f08:	00010007 	andeq	r0, r1, r7

08000f0c <HAL_TIM_OC_DelayElapsedCallback>:
 8000f0c:	4770      	bx	lr

08000f0e <HAL_TIM_IC_CaptureCallback>:
 8000f0e:	4770      	bx	lr

08000f10 <HAL_TIM_PWM_PulseFinishedCallback>:
 8000f10:	4770      	bx	lr

08000f12 <HAL_TIM_TriggerCallback>:
 8000f12:	4770      	bx	lr

08000f14 <HAL_TIM_IRQHandler>:
 8000f14:	b510      	push	{r4, lr}
 8000f16:	4604      	mov	r4, r0
 8000f18:	6803      	ldr	r3, [r0, #0]
 8000f1a:	691a      	ldr	r2, [r3, #16]
 8000f1c:	f012 0f02 	tst.w	r2, #2
 8000f20:	d011      	beq.n	8000f46 <HAL_TIM_IRQHandler+0x32>
 8000f22:	68da      	ldr	r2, [r3, #12]
 8000f24:	f012 0f02 	tst.w	r2, #2
 8000f28:	d00d      	beq.n	8000f46 <HAL_TIM_IRQHandler+0x32>
 8000f2a:	f06f 0202 	mvn.w	r2, #2
 8000f2e:	611a      	str	r2, [r3, #16]
 8000f30:	2301      	movs	r3, #1
 8000f32:	7703      	strb	r3, [r0, #28]
 8000f34:	6803      	ldr	r3, [r0, #0]
 8000f36:	699b      	ldr	r3, [r3, #24]
 8000f38:	f013 0f03 	tst.w	r3, #3
 8000f3c:	d079      	beq.n	8001032 <HAL_TIM_IRQHandler+0x11e>
 8000f3e:	f7ff ffe6 	bl	8000f0e <HAL_TIM_IC_CaptureCallback>
 8000f42:	2300      	movs	r3, #0
 8000f44:	7723      	strb	r3, [r4, #28]
 8000f46:	6823      	ldr	r3, [r4, #0]
 8000f48:	691a      	ldr	r2, [r3, #16]
 8000f4a:	f012 0f04 	tst.w	r2, #4
 8000f4e:	d012      	beq.n	8000f76 <HAL_TIM_IRQHandler+0x62>
 8000f50:	68da      	ldr	r2, [r3, #12]
 8000f52:	f012 0f04 	tst.w	r2, #4
 8000f56:	d00e      	beq.n	8000f76 <HAL_TIM_IRQHandler+0x62>
 8000f58:	f06f 0204 	mvn.w	r2, #4
 8000f5c:	611a      	str	r2, [r3, #16]
 8000f5e:	2302      	movs	r3, #2
 8000f60:	7723      	strb	r3, [r4, #28]
 8000f62:	6823      	ldr	r3, [r4, #0]
 8000f64:	699b      	ldr	r3, [r3, #24]
 8000f66:	f413 7f40 	tst.w	r3, #768	; 0x300
 8000f6a:	d068      	beq.n	800103e <HAL_TIM_IRQHandler+0x12a>
 8000f6c:	4620      	mov	r0, r4
 8000f6e:	f7ff ffce 	bl	8000f0e <HAL_TIM_IC_CaptureCallback>
 8000f72:	2300      	movs	r3, #0
 8000f74:	7723      	strb	r3, [r4, #28]
 8000f76:	6823      	ldr	r3, [r4, #0]
 8000f78:	691a      	ldr	r2, [r3, #16]
 8000f7a:	f012 0f08 	tst.w	r2, #8
 8000f7e:	d012      	beq.n	8000fa6 <HAL_TIM_IRQHandler+0x92>
 8000f80:	68da      	ldr	r2, [r3, #12]
 8000f82:	f012 0f08 	tst.w	r2, #8
 8000f86:	d00e      	beq.n	8000fa6 <HAL_TIM_IRQHandler+0x92>
 8000f88:	f06f 0208 	mvn.w	r2, #8
 8000f8c:	611a      	str	r2, [r3, #16]
 8000f8e:	2304      	movs	r3, #4
 8000f90:	7723      	strb	r3, [r4, #28]
 8000f92:	6823      	ldr	r3, [r4, #0]
 8000f94:	69db      	ldr	r3, [r3, #28]
 8000f96:	f013 0f03 	tst.w	r3, #3
 8000f9a:	d057      	beq.n	800104c <HAL_TIM_IRQHandler+0x138>
 8000f9c:	4620      	mov	r0, r4
 8000f9e:	f7ff ffb6 	bl	8000f0e <HAL_TIM_IC_CaptureCallback>
 8000fa2:	2300      	movs	r3, #0
 8000fa4:	7723      	strb	r3, [r4, #28]
 8000fa6:	6823      	ldr	r3, [r4, #0]
 8000fa8:	691a      	ldr	r2, [r3, #16]
 8000faa:	f012 0f10 	tst.w	r2, #16
 8000fae:	d012      	beq.n	8000fd6 <HAL_TIM_IRQHandler+0xc2>
 8000fb0:	68da      	ldr	r2, [r3, #12]
 8000fb2:	f012 0f10 	tst.w	r2, #16
 8000fb6:	d00e      	beq.n	8000fd6 <HAL_TIM_IRQHandler+0xc2>
 8000fb8:	f06f 0210 	mvn.w	r2, #16
 8000fbc:	611a      	str	r2, [r3, #16]
 8000fbe:	2308      	movs	r3, #8
 8000fc0:	7723      	strb	r3, [r4, #28]
 8000fc2:	6823      	ldr	r3, [r4, #0]
 8000fc4:	69db      	ldr	r3, [r3, #28]
 8000fc6:	f413 7f40 	tst.w	r3, #768	; 0x300
 8000fca:	d046      	beq.n	800105a <HAL_TIM_IRQHandler+0x146>
 8000fcc:	4620      	mov	r0, r4
 8000fce:	f7ff ff9e 	bl	8000f0e <HAL_TIM_IC_CaptureCallback>
 8000fd2:	2300      	movs	r3, #0
 8000fd4:	7723      	strb	r3, [r4, #28]
 8000fd6:	6823      	ldr	r3, [r4, #0]
 8000fd8:	691a      	ldr	r2, [r3, #16]
 8000fda:	f012 0f01 	tst.w	r2, #1
 8000fde:	d003      	beq.n	8000fe8 <HAL_TIM_IRQHandler+0xd4>
 8000fe0:	68da      	ldr	r2, [r3, #12]
 8000fe2:	f012 0f01 	tst.w	r2, #1
 8000fe6:	d13f      	bne.n	8001068 <HAL_TIM_IRQHandler+0x154>
 8000fe8:	6823      	ldr	r3, [r4, #0]
 8000fea:	691a      	ldr	r2, [r3, #16]
 8000fec:	f012 0f80 	tst.w	r2, #128	; 0x80
 8000ff0:	d003      	beq.n	8000ffa <HAL_TIM_IRQHandler+0xe6>
 8000ff2:	68da      	ldr	r2, [r3, #12]
 8000ff4:	f012 0f80 	tst.w	r2, #128	; 0x80
 8000ff8:	d13d      	bne.n	8001076 <HAL_TIM_IRQHandler+0x162>
 8000ffa:	6823      	ldr	r3, [r4, #0]
 8000ffc:	691a      	ldr	r2, [r3, #16]
 8000ffe:	f412 7f80 	tst.w	r2, #256	; 0x100
 8001002:	d003      	beq.n	800100c <HAL_TIM_IRQHandler+0xf8>
 8001004:	68da      	ldr	r2, [r3, #12]
 8001006:	f012 0f80 	tst.w	r2, #128	; 0x80
 800100a:	d13b      	bne.n	8001084 <HAL_TIM_IRQHandler+0x170>
 800100c:	6823      	ldr	r3, [r4, #0]
 800100e:	691a      	ldr	r2, [r3, #16]
 8001010:	f012 0f40 	tst.w	r2, #64	; 0x40
 8001014:	d003      	beq.n	800101e <HAL_TIM_IRQHandler+0x10a>
 8001016:	68da      	ldr	r2, [r3, #12]
 8001018:	f012 0f40 	tst.w	r2, #64	; 0x40
 800101c:	d139      	bne.n	8001092 <HAL_TIM_IRQHandler+0x17e>
 800101e:	6823      	ldr	r3, [r4, #0]
 8001020:	691a      	ldr	r2, [r3, #16]
 8001022:	f012 0f20 	tst.w	r2, #32
 8001026:	d003      	beq.n	8001030 <HAL_TIM_IRQHandler+0x11c>
 8001028:	68da      	ldr	r2, [r3, #12]
 800102a:	f012 0f20 	tst.w	r2, #32
 800102e:	d137      	bne.n	80010a0 <HAL_TIM_IRQHandler+0x18c>
 8001030:	bd10      	pop	{r4, pc}
 8001032:	f7ff ff6b 	bl	8000f0c <HAL_TIM_OC_DelayElapsedCallback>
 8001036:	4620      	mov	r0, r4
 8001038:	f7ff ff6a 	bl	8000f10 <HAL_TIM_PWM_PulseFinishedCallback>
 800103c:	e781      	b.n	8000f42 <HAL_TIM_IRQHandler+0x2e>
 800103e:	4620      	mov	r0, r4
 8001040:	f7ff ff64 	bl	8000f0c <HAL_TIM_OC_DelayElapsedCallback>
 8001044:	4620      	mov	r0, r4
 8001046:	f7ff ff63 	bl	8000f10 <HAL_TIM_PWM_PulseFinishedCallback>
 800104a:	e792      	b.n	8000f72 <HAL_TIM_IRQHandler+0x5e>
 800104c:	4620      	mov	r0, r4
 800104e:	f7ff ff5d 	bl	8000f0c <HAL_TIM_OC_DelayElapsedCallback>
 8001052:	4620      	mov	r0, r4
 8001054:	f7ff ff5c 	bl	8000f10 <HAL_TIM_PWM_PulseFinishedCallback>
 8001058:	e7a3      	b.n	8000fa2 <HAL_TIM_IRQHandler+0x8e>
 800105a:	4620      	mov	r0, r4
 800105c:	f7ff ff56 	bl	8000f0c <HAL_TIM_OC_DelayElapsedCallback>
 8001060:	4620      	mov	r0, r4
 8001062:	f7ff ff55 	bl	8000f10 <HAL_TIM_PWM_PulseFinishedCallback>
 8001066:	e7b4      	b.n	8000fd2 <HAL_TIM_IRQHandler+0xbe>
 8001068:	f06f 0201 	mvn.w	r2, #1
 800106c:	611a      	str	r2, [r3, #16]
 800106e:	4620      	mov	r0, r4
 8001070:	f7ff fe1a 	bl	8000ca8 <HAL_TIM_PeriodElapsedCallback>
 8001074:	e7b8      	b.n	8000fe8 <HAL_TIM_IRQHandler+0xd4>
 8001076:	f06f 0280 	mvn.w	r2, #128	; 0x80
 800107a:	611a      	str	r2, [r3, #16]
 800107c:	4620      	mov	r0, r4
 800107e:	f000 f8b8 	bl	80011f2 <HAL_TIMEx_BreakCallback>
 8001082:	e7ba      	b.n	8000ffa <HAL_TIM_IRQHandler+0xe6>
 8001084:	f46f 7280 	mvn.w	r2, #256	; 0x100
 8001088:	611a      	str	r2, [r3, #16]
 800108a:	4620      	mov	r0, r4
 800108c:	f000 f8b2 	bl	80011f4 <HAL_TIMEx_Break2Callback>
 8001090:	e7bc      	b.n	800100c <HAL_TIM_IRQHandler+0xf8>
 8001092:	f06f 0240 	mvn.w	r2, #64	; 0x40
 8001096:	611a      	str	r2, [r3, #16]
 8001098:	4620      	mov	r0, r4
 800109a:	f7ff ff3a 	bl	8000f12 <HAL_TIM_TriggerCallback>
 800109e:	e7be      	b.n	800101e <HAL_TIM_IRQHandler+0x10a>
 80010a0:	f06f 0220 	mvn.w	r2, #32
 80010a4:	611a      	str	r2, [r3, #16]
 80010a6:	4620      	mov	r0, r4
 80010a8:	f000 f8a2 	bl	80011f0 <HAL_TIMEx_CommutCallback>
 80010ac:	e7c0      	b.n	8001030 <HAL_TIM_IRQHandler+0x11c>
	...

080010b0 <TIM_Base_SetConfig>:
 80010b0:	b470      	push	{r4, r5, r6}
 80010b2:	6803      	ldr	r3, [r0, #0]
 80010b4:	4c3a      	ldr	r4, [pc, #232]	; (80011a0 <TIM_Base_SetConfig+0xf0>)
 80010b6:	42a0      	cmp	r0, r4
 80010b8:	bf14      	ite	ne
 80010ba:	2400      	movne	r4, #0
 80010bc:	2401      	moveq	r4, #1
 80010be:	f1b0 4f80 	cmp.w	r0, #1073741824	; 0x40000000
 80010c2:	bf14      	ite	ne
 80010c4:	4622      	movne	r2, r4
 80010c6:	f044 0201 	orreq.w	r2, r4, #1
 80010ca:	b9aa      	cbnz	r2, 80010f8 <TIM_Base_SetConfig+0x48>
 80010cc:	4d35      	ldr	r5, [pc, #212]	; (80011a4 <TIM_Base_SetConfig+0xf4>)
 80010ce:	42a8      	cmp	r0, r5
 80010d0:	bf14      	ite	ne
 80010d2:	2500      	movne	r5, #0
 80010d4:	2501      	moveq	r5, #1
 80010d6:	4e34      	ldr	r6, [pc, #208]	; (80011a8 <TIM_Base_SetConfig+0xf8>)
 80010d8:	42b0      	cmp	r0, r6
 80010da:	d00d      	beq.n	80010f8 <TIM_Base_SetConfig+0x48>
 80010dc:	b965      	cbnz	r5, 80010f8 <TIM_Base_SetConfig+0x48>
 80010de:	f105 4580 	add.w	r5, r5, #1073741824	; 0x40000000
 80010e2:	f505 3582 	add.w	r5, r5, #66560	; 0x10400
 80010e6:	42a8      	cmp	r0, r5
 80010e8:	bf14      	ite	ne
 80010ea:	2500      	movne	r5, #0
 80010ec:	2501      	moveq	r5, #1
 80010ee:	f506 6600 	add.w	r6, r6, #2048	; 0x800
 80010f2:	42b0      	cmp	r0, r6
 80010f4:	d000      	beq.n	80010f8 <TIM_Base_SetConfig+0x48>
 80010f6:	b11d      	cbz	r5, 8001100 <TIM_Base_SetConfig+0x50>
 80010f8:	f023 0370 	bic.w	r3, r3, #112	; 0x70
 80010fc:	684d      	ldr	r5, [r1, #4]
 80010fe:	432b      	orrs	r3, r5
 8001100:	2a00      	cmp	r2, #0
 8001102:	d133      	bne.n	800116c <TIM_Base_SetConfig+0xbc>
 8001104:	4a27      	ldr	r2, [pc, #156]	; (80011a4 <TIM_Base_SetConfig+0xf4>)
 8001106:	4290      	cmp	r0, r2
 8001108:	bf14      	ite	ne
 800110a:	2200      	movne	r2, #0
 800110c:	2201      	moveq	r2, #1
 800110e:	4d26      	ldr	r5, [pc, #152]	; (80011a8 <TIM_Base_SetConfig+0xf8>)
 8001110:	42a8      	cmp	r0, r5
 8001112:	d02b      	beq.n	800116c <TIM_Base_SetConfig+0xbc>
 8001114:	bb52      	cbnz	r2, 800116c <TIM_Base_SetConfig+0xbc>
 8001116:	f102 4280 	add.w	r2, r2, #1073741824	; 0x40000000
 800111a:	f502 3282 	add.w	r2, r2, #66560	; 0x10400
 800111e:	4290      	cmp	r0, r2
 8001120:	bf14      	ite	ne
 8001122:	2200      	movne	r2, #0
 8001124:	2201      	moveq	r2, #1
 8001126:	f505 6500 	add.w	r5, r5, #2048	; 0x800
 800112a:	42a8      	cmp	r0, r5
 800112c:	d01e      	beq.n	800116c <TIM_Base_SetConfig+0xbc>
 800112e:	b9ea      	cbnz	r2, 800116c <TIM_Base_SetConfig+0xbc>
 8001130:	4a1e      	ldr	r2, [pc, #120]	; (80011ac <TIM_Base_SetConfig+0xfc>)
 8001132:	4290      	cmp	r0, r2
 8001134:	bf14      	ite	ne
 8001136:	2200      	movne	r2, #0
 8001138:	2201      	moveq	r2, #1
 800113a:	f505 359a 	add.w	r5, r5, #78848	; 0x13400
 800113e:	42a8      	cmp	r0, r5
 8001140:	d014      	beq.n	800116c <TIM_Base_SetConfig+0xbc>
 8001142:	b99a      	cbnz	r2, 800116c <TIM_Base_SetConfig+0xbc>
 8001144:	4a1a      	ldr	r2, [pc, #104]	; (80011b0 <TIM_Base_SetConfig+0x100>)
 8001146:	4290      	cmp	r0, r2
 8001148:	bf14      	ite	ne
 800114a:	2200      	movne	r2, #0
 800114c:	2201      	moveq	r2, #1
 800114e:	f505 6500 	add.w	r5, r5, #2048	; 0x800
 8001152:	42a8      	cmp	r0, r5
 8001154:	d00a      	beq.n	800116c <TIM_Base_SetConfig+0xbc>
 8001156:	b94a      	cbnz	r2, 800116c <TIM_Base_SetConfig+0xbc>
 8001158:	4a16      	ldr	r2, [pc, #88]	; (80011b4 <TIM_Base_SetConfig+0x104>)
 800115a:	4290      	cmp	r0, r2
 800115c:	bf14      	ite	ne
 800115e:	2200      	movne	r2, #0
 8001160:	2201      	moveq	r2, #1
 8001162:	f5a5 3596 	sub.w	r5, r5, #76800	; 0x12c00
 8001166:	42a8      	cmp	r0, r5
 8001168:	d000      	beq.n	800116c <TIM_Base_SetConfig+0xbc>
 800116a:	b11a      	cbz	r2, 8001174 <TIM_Base_SetConfig+0xc4>
 800116c:	f423 7340 	bic.w	r3, r3, #768	; 0x300
 8001170:	68ca      	ldr	r2, [r1, #12]
 8001172:	4313      	orrs	r3, r2
 8001174:	f023 0380 	bic.w	r3, r3, #128	; 0x80
 8001178:	694a      	ldr	r2, [r1, #20]
 800117a:	4313      	orrs	r3, r2
 800117c:	6003      	str	r3, [r0, #0]
 800117e:	688a      	ldr	r2, [r1, #8]
 8001180:	62c2      	str	r2, [r0, #44]	; 0x2c
 8001182:	680a      	ldr	r2, [r1, #0]
 8001184:	6282      	str	r2, [r0, #40]	; 0x28
 8001186:	4b0c      	ldr	r3, [pc, #48]	; (80011b8 <TIM_Base_SetConfig+0x108>)
 8001188:	4298      	cmp	r0, r3
 800118a:	bf14      	ite	ne
 800118c:	4623      	movne	r3, r4
 800118e:	f044 0301 	orreq.w	r3, r4, #1
 8001192:	b10b      	cbz	r3, 8001198 <TIM_Base_SetConfig+0xe8>
 8001194:	690b      	ldr	r3, [r1, #16]
 8001196:	6303      	str	r3, [r0, #48]	; 0x30
 8001198:	2301      	movs	r3, #1
 800119a:	6143      	str	r3, [r0, #20]
 800119c:	bc70      	pop	{r4, r5, r6}
 800119e:	4770      	bx	lr
 80011a0:	40010000 	andmi	r0, r1, r0
 80011a4:	40000800 	andmi	r0, r0, r0, lsl #16
 80011a8:	40000400 	andmi	r0, r0, r0, lsl #8
 80011ac:	40014400 	andmi	r4, r1, r0, lsl #8
 80011b0:	40001800 	andmi	r1, r0, r0, lsl #16
 80011b4:	40002000 	andmi	r2, r0, r0
 80011b8:	40010400 	andmi	r0, r1, r0, lsl #8

080011bc <HAL_TIM_Base_Init>:
 80011bc:	b1b0      	cbz	r0, 80011ec <HAL_TIM_Base_Init+0x30>
 80011be:	b510      	push	{r4, lr}
 80011c0:	4604      	mov	r4, r0
 80011c2:	f890 303d 	ldrb.w	r3, [r0, #61]	; 0x3d
 80011c6:	b163      	cbz	r3, 80011e2 <HAL_TIM_Base_Init+0x26>
 80011c8:	2302      	movs	r3, #2
 80011ca:	f884 303d 	strb.w	r3, [r4, #61]	; 0x3d
 80011ce:	4621      	mov	r1, r4
 80011d0:	f851 0b04 	ldr.w	r0, [r1], #4
 80011d4:	f7ff ff6c 	bl	80010b0 <TIM_Base_SetConfig>
 80011d8:	2301      	movs	r3, #1
 80011da:	f884 303d 	strb.w	r3, [r4, #61]	; 0x3d
 80011de:	2000      	movs	r0, #0
 80011e0:	bd10      	pop	{r4, pc}
 80011e2:	f880 303c 	strb.w	r3, [r0, #60]	; 0x3c
 80011e6:	f7ff fe79 	bl	8000edc <HAL_TIM_Base_MspInit>
 80011ea:	e7ed      	b.n	80011c8 <HAL_TIM_Base_Init+0xc>
 80011ec:	2001      	movs	r0, #1
 80011ee:	4770      	bx	lr

080011f0 <HAL_TIMEx_CommutCallback>:
 80011f0:	4770      	bx	lr

080011f2 <HAL_TIMEx_BreakCallback>:
 80011f2:	4770      	bx	lr

080011f4 <HAL_TIMEx_Break2Callback>:
 80011f4:	4770      	bx	lr
	...

080011f8 <UART_SetConfig>:
 80011f8:	b510      	push	{r4, lr}
 80011fa:	4604      	mov	r4, r0
 80011fc:	6883      	ldr	r3, [r0, #8]
 80011fe:	6902      	ldr	r2, [r0, #16]
 8001200:	4313      	orrs	r3, r2
 8001202:	6942      	ldr	r2, [r0, #20]
 8001204:	4313      	orrs	r3, r2
 8001206:	69c2      	ldr	r2, [r0, #28]
 8001208:	4313      	orrs	r3, r2
 800120a:	6801      	ldr	r1, [r0, #0]
 800120c:	6808      	ldr	r0, [r1, #0]
 800120e:	4a9d      	ldr	r2, [pc, #628]	; (8001484 <UART_SetConfig+0x28c>)
 8001210:	4002      	ands	r2, r0
 8001212:	4313      	orrs	r3, r2
 8001214:	600b      	str	r3, [r1, #0]
 8001216:	6822      	ldr	r2, [r4, #0]
 8001218:	6853      	ldr	r3, [r2, #4]
 800121a:	f423 5340 	bic.w	r3, r3, #12288	; 0x3000
 800121e:	68e1      	ldr	r1, [r4, #12]
 8001220:	430b      	orrs	r3, r1
 8001222:	6053      	str	r3, [r2, #4]
 8001224:	69a2      	ldr	r2, [r4, #24]
 8001226:	6a23      	ldr	r3, [r4, #32]
 8001228:	431a      	orrs	r2, r3
 800122a:	6821      	ldr	r1, [r4, #0]
 800122c:	688b      	ldr	r3, [r1, #8]
 800122e:	f423 6330 	bic.w	r3, r3, #2816	; 0xb00
 8001232:	4313      	orrs	r3, r2
 8001234:	608b      	str	r3, [r1, #8]
 8001236:	6823      	ldr	r3, [r4, #0]
 8001238:	4a93      	ldr	r2, [pc, #588]	; (8001488 <UART_SetConfig+0x290>)
 800123a:	4293      	cmp	r3, r2
 800123c:	d019      	beq.n	8001272 <UART_SetConfig+0x7a>
 800123e:	4a93      	ldr	r2, [pc, #588]	; (800148c <UART_SetConfig+0x294>)
 8001240:	4293      	cmp	r3, r2
 8001242:	d029      	beq.n	8001298 <UART_SetConfig+0xa0>
 8001244:	4a92      	ldr	r2, [pc, #584]	; (8001490 <UART_SetConfig+0x298>)
 8001246:	4293      	cmp	r3, r2
 8001248:	d03e      	beq.n	80012c8 <UART_SetConfig+0xd0>
 800124a:	4a92      	ldr	r2, [pc, #584]	; (8001494 <UART_SetConfig+0x29c>)
 800124c:	4293      	cmp	r3, r2
 800124e:	d064      	beq.n	800131a <UART_SetConfig+0x122>
 8001250:	4a91      	ldr	r2, [pc, #580]	; (8001498 <UART_SetConfig+0x2a0>)
 8001252:	4293      	cmp	r3, r2
 8001254:	d076      	beq.n	8001344 <UART_SetConfig+0x14c>
 8001256:	4a91      	ldr	r2, [pc, #580]	; (800149c <UART_SetConfig+0x2a4>)
 8001258:	4293      	cmp	r3, r2
 800125a:	f000 808b 	beq.w	8001374 <UART_SetConfig+0x17c>
 800125e:	4a90      	ldr	r2, [pc, #576]	; (80014a0 <UART_SetConfig+0x2a8>)
 8001260:	4293      	cmp	r3, r2
 8001262:	f000 809f 	beq.w	80013a4 <UART_SetConfig+0x1ac>
 8001266:	4a8f      	ldr	r2, [pc, #572]	; (80014a4 <UART_SetConfig+0x2ac>)
 8001268:	4293      	cmp	r3, r2
 800126a:	f000 80b3 	beq.w	80013d4 <UART_SetConfig+0x1dc>
 800126e:	2310      	movs	r3, #16
 8001270:	e03e      	b.n	80012f0 <UART_SetConfig+0xf8>
 8001272:	4b8d      	ldr	r3, [pc, #564]	; (80014a8 <UART_SetConfig+0x2b0>)
 8001274:	f8d3 3090 	ldr.w	r3, [r3, #144]	; 0x90
 8001278:	f003 0303 	and.w	r3, r3, #3
 800127c:	2b03      	cmp	r3, #3
 800127e:	d809      	bhi.n	8001294 <UART_SetConfig+0x9c>
 8001280:	e8df f003 	tbb	[pc, r3]
 8001284:	06c00402 	strbeq	r0, [r0], r2, lsl #8
 8001288:	2301      	movs	r3, #1
 800128a:	e031      	b.n	80012f0 <UART_SetConfig+0xf8>
 800128c:	2304      	movs	r3, #4
 800128e:	e02f      	b.n	80012f0 <UART_SetConfig+0xf8>
 8001290:	2308      	movs	r3, #8
 8001292:	e02d      	b.n	80012f0 <UART_SetConfig+0xf8>
 8001294:	2310      	movs	r3, #16
 8001296:	e02b      	b.n	80012f0 <UART_SetConfig+0xf8>
 8001298:	4b83      	ldr	r3, [pc, #524]	; (80014a8 <UART_SetConfig+0x2b0>)
 800129a:	f8d3 3090 	ldr.w	r3, [r3, #144]	; 0x90
 800129e:	f003 030c 	and.w	r3, r3, #12
 80012a2:	2b0c      	cmp	r3, #12
 80012a4:	d80e      	bhi.n	80012c4 <UART_SetConfig+0xcc>
 80012a6:	e8df f003 	tbb	[pc, r3]
 80012aa:	0d0d0d07 	stceq	13, cr0, [sp, #-28]	; 0xffffffe4
 80012ae:	0d0d0d09 	stceq	13, cr0, [sp, #-36]	; 0xffffffdc
 80012b2:	0d0d0daf 	stceq	13, cr0, [sp, #-700]	; 0xfffffd44
 80012b6:	2300000b 	movwcs	r0, #11
 80012ba:	e019      	b.n	80012f0 <UART_SetConfig+0xf8>
 80012bc:	2304      	movs	r3, #4
 80012be:	e017      	b.n	80012f0 <UART_SetConfig+0xf8>
 80012c0:	2308      	movs	r3, #8
 80012c2:	e015      	b.n	80012f0 <UART_SetConfig+0xf8>
 80012c4:	2310      	movs	r3, #16
 80012c6:	e013      	b.n	80012f0 <UART_SetConfig+0xf8>
 80012c8:	4b77      	ldr	r3, [pc, #476]	; (80014a8 <UART_SetConfig+0x2b0>)
 80012ca:	f8d3 3090 	ldr.w	r3, [r3, #144]	; 0x90
 80012ce:	f003 0330 	and.w	r3, r3, #48	; 0x30
 80012d2:	2b10      	cmp	r3, #16
 80012d4:	f000 809a 	beq.w	800140c <UART_SetConfig+0x214>
 80012d8:	d906      	bls.n	80012e8 <UART_SetConfig+0xf0>
 80012da:	2b20      	cmp	r3, #32
 80012dc:	f000 8098 	beq.w	8001410 <UART_SetConfig+0x218>
 80012e0:	2b30      	cmp	r3, #48	; 0x30
 80012e2:	d118      	bne.n	8001316 <UART_SetConfig+0x11e>
 80012e4:	2308      	movs	r3, #8
 80012e6:	e003      	b.n	80012f0 <UART_SetConfig+0xf8>
 80012e8:	b90b      	cbnz	r3, 80012ee <UART_SetConfig+0xf6>
 80012ea:	2300      	movs	r3, #0
 80012ec:	e000      	b.n	80012f0 <UART_SetConfig+0xf8>
 80012ee:	2310      	movs	r3, #16
 80012f0:	69e2      	ldr	r2, [r4, #28]
 80012f2:	f5b2 4f00 	cmp.w	r2, #32768	; 0x8000
 80012f6:	f000 80a1 	beq.w	800143c <UART_SetConfig+0x244>
 80012fa:	2b08      	cmp	r3, #8
 80012fc:	f200 813c 	bhi.w	8001578 <UART_SetConfig+0x380>
 8001300:	e8df f013 	tbh	[pc, r3, lsl #1]
 8001304:	011400ff 	ldrsheq	r0, [r4, -pc]
 8001308:	013a011e 	teqeq	sl, lr, lsl r1
 800130c:	013a0127 	teqeq	sl, r7, lsr #2
 8001310:	013a013a 	teqeq	sl, sl, lsr r1
 8001314:	23100131 	tstcs	r0, #1073741836	; 0x4000000c
 8001318:	e7ea      	b.n	80012f0 <UART_SetConfig+0xf8>
 800131a:	4b63      	ldr	r3, [pc, #396]	; (80014a8 <UART_SetConfig+0x2b0>)
 800131c:	f8d3 3090 	ldr.w	r3, [r3, #144]	; 0x90
 8001320:	f003 03c0 	and.w	r3, r3, #192	; 0xc0
 8001324:	2b40      	cmp	r3, #64	; 0x40
 8001326:	d075      	beq.n	8001414 <UART_SetConfig+0x21c>
 8001328:	d905      	bls.n	8001336 <UART_SetConfig+0x13e>
 800132a:	2b80      	cmp	r3, #128	; 0x80
 800132c:	d074      	beq.n	8001418 <UART_SetConfig+0x220>
 800132e:	2bc0      	cmp	r3, #192	; 0xc0
 8001330:	d106      	bne.n	8001340 <UART_SetConfig+0x148>
 8001332:	2308      	movs	r3, #8
 8001334:	e7dc      	b.n	80012f0 <UART_SetConfig+0xf8>
 8001336:	b90b      	cbnz	r3, 800133c <UART_SetConfig+0x144>
 8001338:	2300      	movs	r3, #0
 800133a:	e7d9      	b.n	80012f0 <UART_SetConfig+0xf8>
 800133c:	2310      	movs	r3, #16
 800133e:	e7d7      	b.n	80012f0 <UART_SetConfig+0xf8>
 8001340:	2310      	movs	r3, #16
 8001342:	e7d5      	b.n	80012f0 <UART_SetConfig+0xf8>
 8001344:	4b58      	ldr	r3, [pc, #352]	; (80014a8 <UART_SetConfig+0x2b0>)
 8001346:	f8d3 3090 	ldr.w	r3, [r3, #144]	; 0x90
 800134a:	f403 7340 	and.w	r3, r3, #768	; 0x300
 800134e:	f5b3 7f80 	cmp.w	r3, #256	; 0x100
 8001352:	d063      	beq.n	800141c <UART_SetConfig+0x224>
 8001354:	d907      	bls.n	8001366 <UART_SetConfig+0x16e>
 8001356:	f5b3 7f00 	cmp.w	r3, #512	; 0x200
 800135a:	d061      	beq.n	8001420 <UART_SetConfig+0x228>
 800135c:	f5b3 7f40 	cmp.w	r3, #768	; 0x300
 8001360:	d106      	bne.n	8001370 <UART_SetConfig+0x178>
 8001362:	2308      	movs	r3, #8
 8001364:	e7c4      	b.n	80012f0 <UART_SetConfig+0xf8>
 8001366:	b90b      	cbnz	r3, 800136c <UART_SetConfig+0x174>
 8001368:	2300      	movs	r3, #0
 800136a:	e7c1      	b.n	80012f0 <UART_SetConfig+0xf8>
 800136c:	2310      	movs	r3, #16
 800136e:	e7bf      	b.n	80012f0 <UART_SetConfig+0xf8>
 8001370:	2310      	movs	r3, #16
 8001372:	e7bd      	b.n	80012f0 <UART_SetConfig+0xf8>
 8001374:	4b4c      	ldr	r3, [pc, #304]	; (80014a8 <UART_SetConfig+0x2b0>)
 8001376:	f8d3 3090 	ldr.w	r3, [r3, #144]	; 0x90
 800137a:	f403 6340 	and.w	r3, r3, #3072	; 0xc00
 800137e:	f5b3 6f80 	cmp.w	r3, #1024	; 0x400
 8001382:	d04f      	beq.n	8001424 <UART_SetConfig+0x22c>
 8001384:	d907      	bls.n	8001396 <UART_SetConfig+0x19e>
 8001386:	f5b3 6f00 	cmp.w	r3, #2048	; 0x800
 800138a:	d04d      	beq.n	8001428 <UART_SetConfig+0x230>
 800138c:	f5b3 6f40 	cmp.w	r3, #3072	; 0xc00
 8001390:	d106      	bne.n	80013a0 <UART_SetConfig+0x1a8>
 8001392:	2308      	movs	r3, #8
 8001394:	e7ac      	b.n	80012f0 <UART_SetConfig+0xf8>
 8001396:	b90b      	cbnz	r3, 800139c <UART_SetConfig+0x1a4>
 8001398:	2301      	movs	r3, #1
 800139a:	e7a9      	b.n	80012f0 <UART_SetConfig+0xf8>
 800139c:	2310      	movs	r3, #16
 800139e:	e7a7      	b.n	80012f0 <UART_SetConfig+0xf8>
 80013a0:	2310      	movs	r3, #16
 80013a2:	e7a5      	b.n	80012f0 <UART_SetConfig+0xf8>
 80013a4:	4b40      	ldr	r3, [pc, #256]	; (80014a8 <UART_SetConfig+0x2b0>)
 80013a6:	f8d3 3090 	ldr.w	r3, [r3, #144]	; 0x90
 80013aa:	f403 5340 	and.w	r3, r3, #12288	; 0x3000
 80013ae:	f5b3 5f80 	cmp.w	r3, #4096	; 0x1000
 80013b2:	d03b      	beq.n	800142c <UART_SetConfig+0x234>
 80013b4:	d907      	bls.n	80013c6 <UART_SetConfig+0x1ce>
 80013b6:	f5b3 5f00 	cmp.w	r3, #8192	; 0x2000
 80013ba:	d039      	beq.n	8001430 <UART_SetConfig+0x238>
 80013bc:	f5b3 5f40 	cmp.w	r3, #12288	; 0x3000
 80013c0:	d106      	bne.n	80013d0 <UART_SetConfig+0x1d8>
 80013c2:	2308      	movs	r3, #8
 80013c4:	e794      	b.n	80012f0 <UART_SetConfig+0xf8>
 80013c6:	b90b      	cbnz	r3, 80013cc <UART_SetConfig+0x1d4>
 80013c8:	2300      	movs	r3, #0
 80013ca:	e791      	b.n	80012f0 <UART_SetConfig+0xf8>
 80013cc:	2310      	movs	r3, #16
 80013ce:	e78f      	b.n	80012f0 <UART_SetConfig+0xf8>
 80013d0:	2310      	movs	r3, #16
 80013d2:	e78d      	b.n	80012f0 <UART_SetConfig+0xf8>
 80013d4:	4b34      	ldr	r3, [pc, #208]	; (80014a8 <UART_SetConfig+0x2b0>)
 80013d6:	f8d3 3090 	ldr.w	r3, [r3, #144]	; 0x90
 80013da:	f403 4340 	and.w	r3, r3, #49152	; 0xc000
 80013de:	f5b3 4f80 	cmp.w	r3, #16384	; 0x4000
 80013e2:	d027      	beq.n	8001434 <UART_SetConfig+0x23c>
 80013e4:	d907      	bls.n	80013f6 <UART_SetConfig+0x1fe>
 80013e6:	f5b3 4f00 	cmp.w	r3, #32768	; 0x8000
 80013ea:	d025      	beq.n	8001438 <UART_SetConfig+0x240>
 80013ec:	f5b3 4f40 	cmp.w	r3, #49152	; 0xc000
 80013f0:	d106      	bne.n	8001400 <UART_SetConfig+0x208>
 80013f2:	2308      	movs	r3, #8
 80013f4:	e77c      	b.n	80012f0 <UART_SetConfig+0xf8>
 80013f6:	b90b      	cbnz	r3, 80013fc <UART_SetConfig+0x204>
 80013f8:	2300      	movs	r3, #0
 80013fa:	e779      	b.n	80012f0 <UART_SetConfig+0xf8>
 80013fc:	2310      	movs	r3, #16
 80013fe:	e777      	b.n	80012f0 <UART_SetConfig+0xf8>
 8001400:	2310      	movs	r3, #16
 8001402:	e775      	b.n	80012f0 <UART_SetConfig+0xf8>
 8001404:	2302      	movs	r3, #2
 8001406:	e773      	b.n	80012f0 <UART_SetConfig+0xf8>
 8001408:	2302      	movs	r3, #2
 800140a:	e771      	b.n	80012f0 <UART_SetConfig+0xf8>
 800140c:	2304      	movs	r3, #4
 800140e:	e76f      	b.n	80012f0 <UART_SetConfig+0xf8>
 8001410:	2302      	movs	r3, #2
 8001412:	e76d      	b.n	80012f0 <UART_SetConfig+0xf8>
 8001414:	2304      	movs	r3, #4
 8001416:	e76b      	b.n	80012f0 <UART_SetConfig+0xf8>
 8001418:	2302      	movs	r3, #2
 800141a:	e769      	b.n	80012f0 <UART_SetConfig+0xf8>
 800141c:	2304      	movs	r3, #4
 800141e:	e767      	b.n	80012f0 <UART_SetConfig+0xf8>
 8001420:	2302      	movs	r3, #2
 8001422:	e765      	b.n	80012f0 <UART_SetConfig+0xf8>
 8001424:	2304      	movs	r3, #4
 8001426:	e763      	b.n	80012f0 <UART_SetConfig+0xf8>
 8001428:	2302      	movs	r3, #2
 800142a:	e761      	b.n	80012f0 <UART_SetConfig+0xf8>
 800142c:	2304      	movs	r3, #4
 800142e:	e75f      	b.n	80012f0 <UART_SetConfig+0xf8>
 8001430:	2302      	movs	r3, #2
 8001432:	e75d      	b.n	80012f0 <UART_SetConfig+0xf8>
 8001434:	2304      	movs	r3, #4
 8001436:	e75b      	b.n	80012f0 <UART_SetConfig+0xf8>
 8001438:	2302      	movs	r3, #2
 800143a:	e759      	b.n	80012f0 <UART_SetConfig+0xf8>
 800143c:	2b08      	cmp	r3, #8
 800143e:	d85d      	bhi.n	80014fc <UART_SetConfig+0x304>
 8001440:	e8df f003 	tbb	[pc, r3]
 8001444:	5c3f3405 	cfldrspl	mvf3, [pc], #-20	; 8001438 <UART_SetConfig+0x240>
 8001448:	5c5c5c48 	mrrcpl	12, 4, r5, ip, cr8
 800144c:	f0000053 			; <UNDEFINED> instruction: 0xf0000053
 8001450:	fc7b 6862 	vcmla.f32	q11, <illegal reg q5.5>, q9, #0
 8001454:	0853      	lsrs	r3, r2, #1
 8001456:	eb03 0340 	add.w	r3, r3, r0, lsl #1
 800145a:	fbb3 f3f2 	udiv	r3, r3, r2
 800145e:	b29b      	uxth	r3, r3
 8001460:	2000      	movs	r0, #0
 8001462:	f1a3 0110 	sub.w	r1, r3, #16
 8001466:	f64f 72ef 	movw	r2, #65519	; 0xffef
 800146a:	4291      	cmp	r1, r2
 800146c:	f200 8087 	bhi.w	800157e <UART_SetConfig+0x386>
 8001470:	b29a      	uxth	r2, r3
 8001472:	f022 020f 	bic.w	r2, r2, #15
 8001476:	f3c3 0342 	ubfx	r3, r3, #1, #3
 800147a:	4313      	orrs	r3, r2
 800147c:	6822      	ldr	r2, [r4, #0]
 800147e:	60d3      	str	r3, [r2, #12]
 8001480:	e050      	b.n	8001524 <UART_SetConfig+0x32c>
 8001482:	bf00      	nop
 8001484:	efff69f3 	svc	0x00ff69f3
 8001488:	40011000 	andmi	r1, r1, r0
 800148c:	40004400 	andmi	r4, r0, r0, lsl #8
 8001490:	40004800 	andmi	r4, r0, r0, lsl #16
 8001494:	40004c00 	andmi	r4, r0, r0, lsl #24
 8001498:	40005000 	andmi	r5, r0, r0
 800149c:	40011400 	andmi	r1, r1, r0, lsl #8
 80014a0:	40007800 	andmi	r7, r0, r0, lsl #16
 80014a4:	40007c00 	andmi	r7, r0, r0, lsl #24
 80014a8:	40023800 	andmi	r3, r2, r0, lsl #16
 80014ac:	f000 fc5c 	bl	8001d68 <HAL_RCC_GetPCLK2Freq>
 80014b0:	6862      	ldr	r2, [r4, #4]
 80014b2:	0853      	lsrs	r3, r2, #1
 80014b4:	eb03 0340 	add.w	r3, r3, r0, lsl #1
 80014b8:	fbb3 f3f2 	udiv	r3, r3, r2
 80014bc:	b29b      	uxth	r3, r3
 80014be:	2000      	movs	r0, #0
 80014c0:	e7cf      	b.n	8001462 <UART_SetConfig+0x26a>
 80014c2:	6862      	ldr	r2, [r4, #4]
 80014c4:	4b30      	ldr	r3, [pc, #192]	; (8001588 <UART_SetConfig+0x390>)
 80014c6:	eb03 0352 	add.w	r3, r3, r2, lsr #1
 80014ca:	fbb3 f3f2 	udiv	r3, r3, r2
 80014ce:	b29b      	uxth	r3, r3
 80014d0:	2000      	movs	r0, #0
 80014d2:	e7c6      	b.n	8001462 <UART_SetConfig+0x26a>
 80014d4:	f000 fb2e 	bl	8001b34 <HAL_RCC_GetSysClockFreq>
 80014d8:	6862      	ldr	r2, [r4, #4]
 80014da:	0853      	lsrs	r3, r2, #1
 80014dc:	eb03 0340 	add.w	r3, r3, r0, lsl #1
 80014e0:	fbb3 f3f2 	udiv	r3, r3, r2
 80014e4:	b29b      	uxth	r3, r3
 80014e6:	2000      	movs	r0, #0
 80014e8:	e7bb      	b.n	8001462 <UART_SetConfig+0x26a>
 80014ea:	6862      	ldr	r2, [r4, #4]
 80014ec:	0853      	lsrs	r3, r2, #1
 80014ee:	f503 3380 	add.w	r3, r3, #65536	; 0x10000
 80014f2:	fbb3 f3f2 	udiv	r3, r3, r2
 80014f6:	b29b      	uxth	r3, r3
 80014f8:	2000      	movs	r0, #0
 80014fa:	e7b2      	b.n	8001462 <UART_SetConfig+0x26a>
 80014fc:	2001      	movs	r0, #1
 80014fe:	2300      	movs	r3, #0
 8001500:	e7af      	b.n	8001462 <UART_SetConfig+0x26a>
 8001502:	f000 fc21 	bl	8001d48 <HAL_RCC_GetPCLK1Freq>
 8001506:	6862      	ldr	r2, [r4, #4]
 8001508:	eb00 0352 	add.w	r3, r0, r2, lsr #1
 800150c:	fbb3 f3f2 	udiv	r3, r3, r2
 8001510:	b29b      	uxth	r3, r3
 8001512:	2000      	movs	r0, #0
 8001514:	f1a3 0110 	sub.w	r1, r3, #16
 8001518:	f64f 72ef 	movw	r2, #65519	; 0xffef
 800151c:	4291      	cmp	r1, r2
 800151e:	d830      	bhi.n	8001582 <UART_SetConfig+0x38a>
 8001520:	6822      	ldr	r2, [r4, #0]
 8001522:	60d3      	str	r3, [r2, #12]
 8001524:	2300      	movs	r3, #0
 8001526:	6623      	str	r3, [r4, #96]	; 0x60
 8001528:	6663      	str	r3, [r4, #100]	; 0x64
 800152a:	bd10      	pop	{r4, pc}
 800152c:	f000 fc1c 	bl	8001d68 <HAL_RCC_GetPCLK2Freq>
 8001530:	6862      	ldr	r2, [r4, #4]
 8001532:	eb00 0352 	add.w	r3, r0, r2, lsr #1
 8001536:	fbb3 f3f2 	udiv	r3, r3, r2
 800153a:	b29b      	uxth	r3, r3
 800153c:	2000      	movs	r0, #0
 800153e:	e7e9      	b.n	8001514 <UART_SetConfig+0x31c>
 8001540:	6862      	ldr	r2, [r4, #4]
 8001542:	4b12      	ldr	r3, [pc, #72]	; (800158c <UART_SetConfig+0x394>)
 8001544:	eb03 0352 	add.w	r3, r3, r2, lsr #1
 8001548:	fbb3 f3f2 	udiv	r3, r3, r2
 800154c:	b29b      	uxth	r3, r3
 800154e:	2000      	movs	r0, #0
 8001550:	e7e0      	b.n	8001514 <UART_SetConfig+0x31c>
 8001552:	f000 faef 	bl	8001b34 <HAL_RCC_GetSysClockFreq>
 8001556:	6862      	ldr	r2, [r4, #4]
 8001558:	eb00 0352 	add.w	r3, r0, r2, lsr #1
 800155c:	fbb3 f3f2 	udiv	r3, r3, r2
 8001560:	b29b      	uxth	r3, r3
 8001562:	2000      	movs	r0, #0
 8001564:	e7d6      	b.n	8001514 <UART_SetConfig+0x31c>
 8001566:	6862      	ldr	r2, [r4, #4]
 8001568:	0853      	lsrs	r3, r2, #1
 800156a:	f503 4300 	add.w	r3, r3, #32768	; 0x8000
 800156e:	fbb3 f3f2 	udiv	r3, r3, r2
 8001572:	b29b      	uxth	r3, r3
 8001574:	2000      	movs	r0, #0
 8001576:	e7cd      	b.n	8001514 <UART_SetConfig+0x31c>
 8001578:	2001      	movs	r0, #1
 800157a:	2300      	movs	r3, #0
 800157c:	e7ca      	b.n	8001514 <UART_SetConfig+0x31c>
 800157e:	2001      	movs	r0, #1
 8001580:	e7d0      	b.n	8001524 <UART_SetConfig+0x32c>
 8001582:	2001      	movs	r0, #1
 8001584:	e7ce      	b.n	8001524 <UART_SetConfig+0x32c>
 8001586:	bf00      	nop
 8001588:	01e84800 	mvneq	r4, r0, lsl #16
 800158c:	00f42400 	rscseq	r2, r4, r0, lsl #8

08001590 <UART_AdvFeatureConfig>:
 8001590:	6a43      	ldr	r3, [r0, #36]	; 0x24
 8001592:	f013 0f01 	tst.w	r3, #1
 8001596:	d006      	beq.n	80015a6 <UART_AdvFeatureConfig+0x16>
 8001598:	6802      	ldr	r2, [r0, #0]
 800159a:	6853      	ldr	r3, [r2, #4]
 800159c:	f423 3300 	bic.w	r3, r3, #131072	; 0x20000
 80015a0:	6a81      	ldr	r1, [r0, #40]	; 0x28
 80015a2:	430b      	orrs	r3, r1
 80015a4:	6053      	str	r3, [r2, #4]
 80015a6:	6a43      	ldr	r3, [r0, #36]	; 0x24
 80015a8:	f013 0f02 	tst.w	r3, #2
 80015ac:	d006      	beq.n	80015bc <UART_AdvFeatureConfig+0x2c>
 80015ae:	6802      	ldr	r2, [r0, #0]
 80015b0:	6853      	ldr	r3, [r2, #4]
 80015b2:	f423 3380 	bic.w	r3, r3, #65536	; 0x10000
 80015b6:	6ac1      	ldr	r1, [r0, #44]	; 0x2c
 80015b8:	430b      	orrs	r3, r1
 80015ba:	6053      	str	r3, [r2, #4]
 80015bc:	6a43      	ldr	r3, [r0, #36]	; 0x24
 80015be:	f013 0f04 	tst.w	r3, #4
 80015c2:	d006      	beq.n	80015d2 <UART_AdvFeatureConfig+0x42>
 80015c4:	6802      	ldr	r2, [r0, #0]
 80015c6:	6853      	ldr	r3, [r2, #4]
 80015c8:	f423 2380 	bic.w	r3, r3, #262144	; 0x40000
 80015cc:	6b01      	ldr	r1, [r0, #48]	; 0x30
 80015ce:	430b      	orrs	r3, r1
 80015d0:	6053      	str	r3, [r2, #4]
 80015d2:	6a43      	ldr	r3, [r0, #36]	; 0x24
 80015d4:	f013 0f08 	tst.w	r3, #8
 80015d8:	d006      	beq.n	80015e8 <UART_AdvFeatureConfig+0x58>
 80015da:	6802      	ldr	r2, [r0, #0]
 80015dc:	6853      	ldr	r3, [r2, #4]
 80015de:	f423 4300 	bic.w	r3, r3, #32768	; 0x8000
 80015e2:	6b41      	ldr	r1, [r0, #52]	; 0x34
 80015e4:	430b      	orrs	r3, r1
 80015e6:	6053      	str	r3, [r2, #4]
 80015e8:	6a43      	ldr	r3, [r0, #36]	; 0x24
 80015ea:	f013 0f10 	tst.w	r3, #16
 80015ee:	d006      	beq.n	80015fe <UART_AdvFeatureConfig+0x6e>
 80015f0:	6802      	ldr	r2, [r0, #0]
 80015f2:	6893      	ldr	r3, [r2, #8]
 80015f4:	f423 5380 	bic.w	r3, r3, #4096	; 0x1000
 80015f8:	6b81      	ldr	r1, [r0, #56]	; 0x38
 80015fa:	430b      	orrs	r3, r1
 80015fc:	6093      	str	r3, [r2, #8]
 80015fe:	6a43      	ldr	r3, [r0, #36]	; 0x24
 8001600:	f013 0f20 	tst.w	r3, #32
 8001604:	d006      	beq.n	8001614 <UART_AdvFeatureConfig+0x84>
 8001606:	6802      	ldr	r2, [r0, #0]
 8001608:	6893      	ldr	r3, [r2, #8]
 800160a:	f423 5300 	bic.w	r3, r3, #8192	; 0x2000
 800160e:	6bc1      	ldr	r1, [r0, #60]	; 0x3c
 8001610:	430b      	orrs	r3, r1
 8001612:	6093      	str	r3, [r2, #8]
 8001614:	6a43      	ldr	r3, [r0, #36]	; 0x24
 8001616:	f013 0f40 	tst.w	r3, #64	; 0x40
 800161a:	d00a      	beq.n	8001632 <UART_AdvFeatureConfig+0xa2>
 800161c:	6802      	ldr	r2, [r0, #0]
 800161e:	6853      	ldr	r3, [r2, #4]
 8001620:	f423 1380 	bic.w	r3, r3, #1048576	; 0x100000
 8001624:	6c01      	ldr	r1, [r0, #64]	; 0x40
 8001626:	430b      	orrs	r3, r1
 8001628:	6053      	str	r3, [r2, #4]
 800162a:	6c03      	ldr	r3, [r0, #64]	; 0x40
 800162c:	f5b3 1f80 	cmp.w	r3, #1048576	; 0x100000
 8001630:	d00b      	beq.n	800164a <UART_AdvFeatureConfig+0xba>
 8001632:	6a43      	ldr	r3, [r0, #36]	; 0x24
 8001634:	f013 0f80 	tst.w	r3, #128	; 0x80
 8001638:	d006      	beq.n	8001648 <UART_AdvFeatureConfig+0xb8>
 800163a:	6802      	ldr	r2, [r0, #0]
 800163c:	6853      	ldr	r3, [r2, #4]
 800163e:	f423 2300 	bic.w	r3, r3, #524288	; 0x80000
 8001642:	6c81      	ldr	r1, [r0, #72]	; 0x48
 8001644:	430b      	orrs	r3, r1
 8001646:	6053      	str	r3, [r2, #4]
 8001648:	4770      	bx	lr
 800164a:	6802      	ldr	r2, [r0, #0]
 800164c:	6853      	ldr	r3, [r2, #4]
 800164e:	f423 03c0 	bic.w	r3, r3, #6291456	; 0x600000
 8001652:	6c41      	ldr	r1, [r0, #68]	; 0x44
 8001654:	430b      	orrs	r3, r1
 8001656:	6053      	str	r3, [r2, #4]
 8001658:	e7eb      	b.n	8001632 <UART_AdvFeatureConfig+0xa2>

0800165a <UART_WaitOnFlagUntilTimeout>:
 800165a:	e92d 41f0 	stmdb	sp!, {r4, r5, r6, r7, r8, lr}
 800165e:	4605      	mov	r5, r0
 8001660:	460f      	mov	r7, r1
 8001662:	4616      	mov	r6, r2
 8001664:	4698      	mov	r8, r3
 8001666:	9c06      	ldr	r4, [sp, #24]
 8001668:	682b      	ldr	r3, [r5, #0]
 800166a:	69db      	ldr	r3, [r3, #28]
 800166c:	ea37 0303 	bics.w	r3, r7, r3
 8001670:	bf0c      	ite	eq
 8001672:	2301      	moveq	r3, #1
 8001674:	2300      	movne	r3, #0
 8001676:	42b3      	cmp	r3, r6
 8001678:	d11c      	bne.n	80016b4 <UART_WaitOnFlagUntilTimeout+0x5a>
 800167a:	f1b4 3fff 	cmp.w	r4, #4294967295	; 0xffffffff
 800167e:	d0f3      	beq.n	8001668 <UART_WaitOnFlagUntilTimeout+0xe>
 8001680:	f000 ffb0 	bl	80025e4 <HAL_GetTick>
 8001684:	eba0 0008 	sub.w	r0, r0, r8
 8001688:	42a0      	cmp	r0, r4
 800168a:	d801      	bhi.n	8001690 <UART_WaitOnFlagUntilTimeout+0x36>
 800168c:	2c00      	cmp	r4, #0
 800168e:	d1eb      	bne.n	8001668 <UART_WaitOnFlagUntilTimeout+0xe>
 8001690:	682a      	ldr	r2, [r5, #0]
 8001692:	6813      	ldr	r3, [r2, #0]
 8001694:	f423 73d0 	bic.w	r3, r3, #416	; 0x1a0
 8001698:	6013      	str	r3, [r2, #0]
 800169a:	682a      	ldr	r2, [r5, #0]
 800169c:	6893      	ldr	r3, [r2, #8]
 800169e:	f023 0301 	bic.w	r3, r3, #1
 80016a2:	6093      	str	r3, [r2, #8]
 80016a4:	2320      	movs	r3, #32
 80016a6:	676b      	str	r3, [r5, #116]	; 0x74
 80016a8:	67ab      	str	r3, [r5, #120]	; 0x78
 80016aa:	2300      	movs	r3, #0
 80016ac:	f885 3070 	strb.w	r3, [r5, #112]	; 0x70
 80016b0:	2003      	movs	r0, #3
 80016b2:	e000      	b.n	80016b6 <UART_WaitOnFlagUntilTimeout+0x5c>
 80016b4:	2000      	movs	r0, #0
 80016b6:	e8bd 81f0 	ldmia.w	sp!, {r4, r5, r6, r7, r8, pc}

080016ba <UART_CheckIdleState>:
 80016ba:	b510      	push	{r4, lr}
 80016bc:	b082      	sub	sp, #8
 80016be:	4604      	mov	r4, r0
 80016c0:	2300      	movs	r3, #0
 80016c2:	67c3      	str	r3, [r0, #124]	; 0x7c
 80016c4:	f000 ff8e 	bl	80025e4 <HAL_GetTick>
 80016c8:	6822      	ldr	r2, [r4, #0]
 80016ca:	6812      	ldr	r2, [r2, #0]
 80016cc:	f012 0f08 	tst.w	r2, #8
 80016d0:	d107      	bne.n	80016e2 <UART_CheckIdleState+0x28>
 80016d2:	2320      	movs	r3, #32
 80016d4:	6763      	str	r3, [r4, #116]	; 0x74
 80016d6:	67a3      	str	r3, [r4, #120]	; 0x78
 80016d8:	2000      	movs	r0, #0
 80016da:	f884 0070 	strb.w	r0, [r4, #112]	; 0x70
 80016de:	b002      	add	sp, #8
 80016e0:	bd10      	pop	{r4, pc}
 80016e2:	f06f 437e 	mvn.w	r3, #4261412864	; 0xfe000000
 80016e6:	9300      	str	r3, [sp, #0]
 80016e8:	4603      	mov	r3, r0
 80016ea:	2200      	movs	r2, #0
 80016ec:	f44f 1100 	mov.w	r1, #2097152	; 0x200000
 80016f0:	4620      	mov	r0, r4
 80016f2:	f7ff ffb2 	bl	800165a <UART_WaitOnFlagUntilTimeout>
 80016f6:	2800      	cmp	r0, #0
 80016f8:	d0eb      	beq.n	80016d2 <UART_CheckIdleState+0x18>
 80016fa:	2003      	movs	r0, #3
 80016fc:	e7ef      	b.n	80016de <UART_CheckIdleState+0x24>

080016fe <HAL_UART_Init>:
 80016fe:	b368      	cbz	r0, 800175c <HAL_UART_Init+0x5e>
 8001700:	b510      	push	{r4, lr}
 8001702:	4604      	mov	r4, r0
 8001704:	6f43      	ldr	r3, [r0, #116]	; 0x74
 8001706:	b303      	cbz	r3, 800174a <HAL_UART_Init+0x4c>
 8001708:	2324      	movs	r3, #36	; 0x24
 800170a:	6763      	str	r3, [r4, #116]	; 0x74
 800170c:	6822      	ldr	r2, [r4, #0]
 800170e:	6813      	ldr	r3, [r2, #0]
 8001710:	f023 0301 	bic.w	r3, r3, #1
 8001714:	6013      	str	r3, [r2, #0]
 8001716:	4620      	mov	r0, r4
 8001718:	f7ff fd6e 	bl	80011f8 <UART_SetConfig>
 800171c:	2801      	cmp	r0, #1
 800171e:	d013      	beq.n	8001748 <HAL_UART_Init+0x4a>
 8001720:	6a63      	ldr	r3, [r4, #36]	; 0x24
 8001722:	b9bb      	cbnz	r3, 8001754 <HAL_UART_Init+0x56>
 8001724:	6822      	ldr	r2, [r4, #0]
 8001726:	6853      	ldr	r3, [r2, #4]
 8001728:	f423 4390 	bic.w	r3, r3, #18432	; 0x4800
 800172c:	6053      	str	r3, [r2, #4]
 800172e:	6822      	ldr	r2, [r4, #0]
 8001730:	6893      	ldr	r3, [r2, #8]
 8001732:	f023 032a 	bic.w	r3, r3, #42	; 0x2a
 8001736:	6093      	str	r3, [r2, #8]
 8001738:	6822      	ldr	r2, [r4, #0]
 800173a:	6813      	ldr	r3, [r2, #0]
 800173c:	f043 0301 	orr.w	r3, r3, #1
 8001740:	6013      	str	r3, [r2, #0]
 8001742:	4620      	mov	r0, r4
 8001744:	f7ff ffb9 	bl	80016ba <UART_CheckIdleState>
 8001748:	bd10      	pop	{r4, pc}
 800174a:	f880 3070 	strb.w	r3, [r0, #112]	; 0x70
 800174e:	f7ff fb01 	bl	8000d54 <HAL_UART_MspInit>
 8001752:	e7d9      	b.n	8001708 <HAL_UART_Init+0xa>
 8001754:	4620      	mov	r0, r4
 8001756:	f7ff ff1b 	bl	8001590 <UART_AdvFeatureConfig>
 800175a:	e7e3      	b.n	8001724 <HAL_UART_Init+0x26>
 800175c:	2001      	movs	r0, #1
 800175e:	4770      	bx	lr

08001760 <HAL_RCC_OscConfig>:
 8001760:	2800      	cmp	r0, #0
 8001762:	f000 81da 	beq.w	8001b1a <HAL_RCC_OscConfig+0x3ba>
 8001766:	b570      	push	{r4, r5, r6, lr}
 8001768:	b082      	sub	sp, #8
 800176a:	4604      	mov	r4, r0
 800176c:	6803      	ldr	r3, [r0, #0]
 800176e:	f013 0f01 	tst.w	r3, #1
 8001772:	d029      	beq.n	80017c8 <HAL_RCC_OscConfig+0x68>
 8001774:	4ba7      	ldr	r3, [pc, #668]	; (8001a14 <HAL_RCC_OscConfig+0x2b4>)
 8001776:	689b      	ldr	r3, [r3, #8]
 8001778:	f003 030c 	and.w	r3, r3, #12
 800177c:	2b04      	cmp	r3, #4
 800177e:	d01a      	beq.n	80017b6 <HAL_RCC_OscConfig+0x56>
 8001780:	4ba4      	ldr	r3, [pc, #656]	; (8001a14 <HAL_RCC_OscConfig+0x2b4>)
 8001782:	689b      	ldr	r3, [r3, #8]
 8001784:	f003 030c 	and.w	r3, r3, #12
 8001788:	2b08      	cmp	r3, #8
 800178a:	d00f      	beq.n	80017ac <HAL_RCC_OscConfig+0x4c>
 800178c:	6863      	ldr	r3, [r4, #4]
 800178e:	f5b3 3f80 	cmp.w	r3, #65536	; 0x10000
 8001792:	d040      	beq.n	8001816 <HAL_RCC_OscConfig+0xb6>
 8001794:	2b00      	cmp	r3, #0
 8001796:	d154      	bne.n	8001842 <HAL_RCC_OscConfig+0xe2>
 8001798:	4b9e      	ldr	r3, [pc, #632]	; (8001a14 <HAL_RCC_OscConfig+0x2b4>)
 800179a:	681a      	ldr	r2, [r3, #0]
 800179c:	f422 3280 	bic.w	r2, r2, #65536	; 0x10000
 80017a0:	601a      	str	r2, [r3, #0]
 80017a2:	681a      	ldr	r2, [r3, #0]
 80017a4:	f422 2280 	bic.w	r2, r2, #262144	; 0x40000
 80017a8:	601a      	str	r2, [r3, #0]
 80017aa:	e039      	b.n	8001820 <HAL_RCC_OscConfig+0xc0>
 80017ac:	4b99      	ldr	r3, [pc, #612]	; (8001a14 <HAL_RCC_OscConfig+0x2b4>)
 80017ae:	685b      	ldr	r3, [r3, #4]
 80017b0:	f413 0f80 	tst.w	r3, #4194304	; 0x400000
 80017b4:	d0ea      	beq.n	800178c <HAL_RCC_OscConfig+0x2c>
 80017b6:	4b97      	ldr	r3, [pc, #604]	; (8001a14 <HAL_RCC_OscConfig+0x2b4>)
 80017b8:	681b      	ldr	r3, [r3, #0]
 80017ba:	f413 3f00 	tst.w	r3, #131072	; 0x20000
 80017be:	d003      	beq.n	80017c8 <HAL_RCC_OscConfig+0x68>
 80017c0:	6863      	ldr	r3, [r4, #4]
 80017c2:	2b00      	cmp	r3, #0
 80017c4:	f000 81ab 	beq.w	8001b1e <HAL_RCC_OscConfig+0x3be>
 80017c8:	6823      	ldr	r3, [r4, #0]
 80017ca:	f013 0f02 	tst.w	r3, #2
 80017ce:	d074      	beq.n	80018ba <HAL_RCC_OscConfig+0x15a>
 80017d0:	4b90      	ldr	r3, [pc, #576]	; (8001a14 <HAL_RCC_OscConfig+0x2b4>)
 80017d2:	689b      	ldr	r3, [r3, #8]
 80017d4:	f013 0f0c 	tst.w	r3, #12
 80017d8:	d05e      	beq.n	8001898 <HAL_RCC_OscConfig+0x138>
 80017da:	4b8e      	ldr	r3, [pc, #568]	; (8001a14 <HAL_RCC_OscConfig+0x2b4>)
 80017dc:	689b      	ldr	r3, [r3, #8]
 80017de:	f003 030c 	and.w	r3, r3, #12
 80017e2:	2b08      	cmp	r3, #8
 80017e4:	d053      	beq.n	800188e <HAL_RCC_OscConfig+0x12e>
 80017e6:	68e3      	ldr	r3, [r4, #12]
 80017e8:	2b00      	cmp	r3, #0
 80017ea:	f000 8089 	beq.w	8001900 <HAL_RCC_OscConfig+0x1a0>
 80017ee:	4a89      	ldr	r2, [pc, #548]	; (8001a14 <HAL_RCC_OscConfig+0x2b4>)
 80017f0:	6813      	ldr	r3, [r2, #0]
 80017f2:	f043 0301 	orr.w	r3, r3, #1
 80017f6:	6013      	str	r3, [r2, #0]
 80017f8:	f000 fef4 	bl	80025e4 <HAL_GetTick>
 80017fc:	4605      	mov	r5, r0
 80017fe:	4b85      	ldr	r3, [pc, #532]	; (8001a14 <HAL_RCC_OscConfig+0x2b4>)
 8001800:	681b      	ldr	r3, [r3, #0]
 8001802:	f013 0f02 	tst.w	r3, #2
 8001806:	d172      	bne.n	80018ee <HAL_RCC_OscConfig+0x18e>
 8001808:	f000 feec 	bl	80025e4 <HAL_GetTick>
 800180c:	1b40      	subs	r0, r0, r5
 800180e:	2802      	cmp	r0, #2
 8001810:	d9f5      	bls.n	80017fe <HAL_RCC_OscConfig+0x9e>
 8001812:	2003      	movs	r0, #3
 8001814:	e188      	b.n	8001b28 <HAL_RCC_OscConfig+0x3c8>
 8001816:	4a7f      	ldr	r2, [pc, #508]	; (8001a14 <HAL_RCC_OscConfig+0x2b4>)
 8001818:	6813      	ldr	r3, [r2, #0]
 800181a:	f443 3380 	orr.w	r3, r3, #65536	; 0x10000
 800181e:	6013      	str	r3, [r2, #0]
 8001820:	6863      	ldr	r3, [r4, #4]
 8001822:	b32b      	cbz	r3, 8001870 <HAL_RCC_OscConfig+0x110>
 8001824:	f000 fede 	bl	80025e4 <HAL_GetTick>
 8001828:	4605      	mov	r5, r0
 800182a:	4b7a      	ldr	r3, [pc, #488]	; (8001a14 <HAL_RCC_OscConfig+0x2b4>)
 800182c:	681b      	ldr	r3, [r3, #0]
 800182e:	f413 3f00 	tst.w	r3, #131072	; 0x20000
 8001832:	d1c9      	bne.n	80017c8 <HAL_RCC_OscConfig+0x68>
 8001834:	f000 fed6 	bl	80025e4 <HAL_GetTick>
 8001838:	1b40      	subs	r0, r0, r5
 800183a:	2864      	cmp	r0, #100	; 0x64
 800183c:	d9f5      	bls.n	800182a <HAL_RCC_OscConfig+0xca>
 800183e:	2003      	movs	r0, #3
 8001840:	e172      	b.n	8001b28 <HAL_RCC_OscConfig+0x3c8>
 8001842:	f5b3 2fa0 	cmp.w	r3, #327680	; 0x50000
 8001846:	d009      	beq.n	800185c <HAL_RCC_OscConfig+0xfc>
 8001848:	4b72      	ldr	r3, [pc, #456]	; (8001a14 <HAL_RCC_OscConfig+0x2b4>)
 800184a:	681a      	ldr	r2, [r3, #0]
 800184c:	f422 3280 	bic.w	r2, r2, #65536	; 0x10000
 8001850:	601a      	str	r2, [r3, #0]
 8001852:	681a      	ldr	r2, [r3, #0]
 8001854:	f422 2280 	bic.w	r2, r2, #262144	; 0x40000
 8001858:	601a      	str	r2, [r3, #0]
 800185a:	e7e1      	b.n	8001820 <HAL_RCC_OscConfig+0xc0>
 800185c:	4b6d      	ldr	r3, [pc, #436]	; (8001a14 <HAL_RCC_OscConfig+0x2b4>)
 800185e:	681a      	ldr	r2, [r3, #0]
 8001860:	f442 2280 	orr.w	r2, r2, #262144	; 0x40000
 8001864:	601a      	str	r2, [r3, #0]
 8001866:	681a      	ldr	r2, [r3, #0]
 8001868:	f442 3280 	orr.w	r2, r2, #65536	; 0x10000
 800186c:	601a      	str	r2, [r3, #0]
 800186e:	e7d7      	b.n	8001820 <HAL_RCC_OscConfig+0xc0>
 8001870:	f000 feb8 	bl	80025e4 <HAL_GetTick>
 8001874:	4605      	mov	r5, r0
 8001876:	4b67      	ldr	r3, [pc, #412]	; (8001a14 <HAL_RCC_OscConfig+0x2b4>)
 8001878:	681b      	ldr	r3, [r3, #0]
 800187a:	f413 3f00 	tst.w	r3, #131072	; 0x20000
 800187e:	d0a3      	beq.n	80017c8 <HAL_RCC_OscConfig+0x68>
 8001880:	f000 feb0 	bl	80025e4 <HAL_GetTick>
 8001884:	1b40      	subs	r0, r0, r5
 8001886:	2864      	cmp	r0, #100	; 0x64
 8001888:	d9f5      	bls.n	8001876 <HAL_RCC_OscConfig+0x116>
 800188a:	2003      	movs	r0, #3
 800188c:	e14c      	b.n	8001b28 <HAL_RCC_OscConfig+0x3c8>
 800188e:	4b61      	ldr	r3, [pc, #388]	; (8001a14 <HAL_RCC_OscConfig+0x2b4>)
 8001890:	685b      	ldr	r3, [r3, #4]
 8001892:	f413 0f80 	tst.w	r3, #4194304	; 0x400000
 8001896:	d1a6      	bne.n	80017e6 <HAL_RCC_OscConfig+0x86>
 8001898:	4b5e      	ldr	r3, [pc, #376]	; (8001a14 <HAL_RCC_OscConfig+0x2b4>)
 800189a:	681b      	ldr	r3, [r3, #0]
 800189c:	f013 0f02 	tst.w	r3, #2
 80018a0:	d003      	beq.n	80018aa <HAL_RCC_OscConfig+0x14a>
 80018a2:	68e3      	ldr	r3, [r4, #12]
 80018a4:	2b01      	cmp	r3, #1
 80018a6:	f040 813c 	bne.w	8001b22 <HAL_RCC_OscConfig+0x3c2>
 80018aa:	4a5a      	ldr	r2, [pc, #360]	; (8001a14 <HAL_RCC_OscConfig+0x2b4>)
 80018ac:	6813      	ldr	r3, [r2, #0]
 80018ae:	f023 03f8 	bic.w	r3, r3, #248	; 0xf8
 80018b2:	6921      	ldr	r1, [r4, #16]
 80018b4:	ea43 03c1 	orr.w	r3, r3, r1, lsl #3
 80018b8:	6013      	str	r3, [r2, #0]
 80018ba:	6823      	ldr	r3, [r4, #0]
 80018bc:	f013 0f08 	tst.w	r3, #8
 80018c0:	d046      	beq.n	8001950 <HAL_RCC_OscConfig+0x1f0>
 80018c2:	6963      	ldr	r3, [r4, #20]
 80018c4:	b383      	cbz	r3, 8001928 <HAL_RCC_OscConfig+0x1c8>
 80018c6:	4a53      	ldr	r2, [pc, #332]	; (8001a14 <HAL_RCC_OscConfig+0x2b4>)
 80018c8:	6f53      	ldr	r3, [r2, #116]	; 0x74
 80018ca:	f043 0301 	orr.w	r3, r3, #1
 80018ce:	6753      	str	r3, [r2, #116]	; 0x74
 80018d0:	f000 fe88 	bl	80025e4 <HAL_GetTick>
 80018d4:	4605      	mov	r5, r0
 80018d6:	4b4f      	ldr	r3, [pc, #316]	; (8001a14 <HAL_RCC_OscConfig+0x2b4>)
 80018d8:	6f5b      	ldr	r3, [r3, #116]	; 0x74
 80018da:	f013 0f02 	tst.w	r3, #2
 80018de:	d137      	bne.n	8001950 <HAL_RCC_OscConfig+0x1f0>
 80018e0:	f000 fe80 	bl	80025e4 <HAL_GetTick>
 80018e4:	1b40      	subs	r0, r0, r5
 80018e6:	2802      	cmp	r0, #2
 80018e8:	d9f5      	bls.n	80018d6 <HAL_RCC_OscConfig+0x176>
 80018ea:	2003      	movs	r0, #3
 80018ec:	e11c      	b.n	8001b28 <HAL_RCC_OscConfig+0x3c8>
 80018ee:	4a49      	ldr	r2, [pc, #292]	; (8001a14 <HAL_RCC_OscConfig+0x2b4>)
 80018f0:	6813      	ldr	r3, [r2, #0]
 80018f2:	f023 03f8 	bic.w	r3, r3, #248	; 0xf8
 80018f6:	6921      	ldr	r1, [r4, #16]
 80018f8:	ea43 03c1 	orr.w	r3, r3, r1, lsl #3
 80018fc:	6013      	str	r3, [r2, #0]
 80018fe:	e7dc      	b.n	80018ba <HAL_RCC_OscConfig+0x15a>
 8001900:	4a44      	ldr	r2, [pc, #272]	; (8001a14 <HAL_RCC_OscConfig+0x2b4>)
 8001902:	6813      	ldr	r3, [r2, #0]
 8001904:	f023 0301 	bic.w	r3, r3, #1
 8001908:	6013      	str	r3, [r2, #0]
 800190a:	f000 fe6b 	bl	80025e4 <HAL_GetTick>
 800190e:	4605      	mov	r5, r0
 8001910:	4b40      	ldr	r3, [pc, #256]	; (8001a14 <HAL_RCC_OscConfig+0x2b4>)
 8001912:	681b      	ldr	r3, [r3, #0]
 8001914:	f013 0f02 	tst.w	r3, #2
 8001918:	d0cf      	beq.n	80018ba <HAL_RCC_OscConfig+0x15a>
 800191a:	f000 fe63 	bl	80025e4 <HAL_GetTick>
 800191e:	1b40      	subs	r0, r0, r5
 8001920:	2802      	cmp	r0, #2
 8001922:	d9f5      	bls.n	8001910 <HAL_RCC_OscConfig+0x1b0>
 8001924:	2003      	movs	r0, #3
 8001926:	e0ff      	b.n	8001b28 <HAL_RCC_OscConfig+0x3c8>
 8001928:	4a3a      	ldr	r2, [pc, #232]	; (8001a14 <HAL_RCC_OscConfig+0x2b4>)
 800192a:	6f53      	ldr	r3, [r2, #116]	; 0x74
 800192c:	f023 0301 	bic.w	r3, r3, #1
 8001930:	6753      	str	r3, [r2, #116]	; 0x74
 8001932:	f000 fe57 	bl	80025e4 <HAL_GetTick>
 8001936:	4605      	mov	r5, r0
 8001938:	4b36      	ldr	r3, [pc, #216]	; (8001a14 <HAL_RCC_OscConfig+0x2b4>)
 800193a:	6f5b      	ldr	r3, [r3, #116]	; 0x74
 800193c:	f013 0f02 	tst.w	r3, #2
 8001940:	d006      	beq.n	8001950 <HAL_RCC_OscConfig+0x1f0>
 8001942:	f000 fe4f 	bl	80025e4 <HAL_GetTick>
 8001946:	1b40      	subs	r0, r0, r5
 8001948:	2802      	cmp	r0, #2
 800194a:	d9f5      	bls.n	8001938 <HAL_RCC_OscConfig+0x1d8>
 800194c:	2003      	movs	r0, #3
 800194e:	e0eb      	b.n	8001b28 <HAL_RCC_OscConfig+0x3c8>
 8001950:	6823      	ldr	r3, [r4, #0]
 8001952:	f013 0f04 	tst.w	r3, #4
 8001956:	d07d      	beq.n	8001a54 <HAL_RCC_OscConfig+0x2f4>
 8001958:	4b2e      	ldr	r3, [pc, #184]	; (8001a14 <HAL_RCC_OscConfig+0x2b4>)
 800195a:	6c1b      	ldr	r3, [r3, #64]	; 0x40
 800195c:	f013 5f80 	tst.w	r3, #268435456	; 0x10000000
 8001960:	d11e      	bne.n	80019a0 <HAL_RCC_OscConfig+0x240>
 8001962:	4b2c      	ldr	r3, [pc, #176]	; (8001a14 <HAL_RCC_OscConfig+0x2b4>)
 8001964:	6c1a      	ldr	r2, [r3, #64]	; 0x40
 8001966:	f042 5280 	orr.w	r2, r2, #268435456	; 0x10000000
 800196a:	641a      	str	r2, [r3, #64]	; 0x40
 800196c:	6c1b      	ldr	r3, [r3, #64]	; 0x40
 800196e:	f003 5380 	and.w	r3, r3, #268435456	; 0x10000000
 8001972:	9301      	str	r3, [sp, #4]
 8001974:	9b01      	ldr	r3, [sp, #4]
 8001976:	2501      	movs	r5, #1
 8001978:	4b27      	ldr	r3, [pc, #156]	; (8001a18 <HAL_RCC_OscConfig+0x2b8>)
 800197a:	681b      	ldr	r3, [r3, #0]
 800197c:	f413 7f80 	tst.w	r3, #256	; 0x100
 8001980:	d010      	beq.n	80019a4 <HAL_RCC_OscConfig+0x244>
 8001982:	68a3      	ldr	r3, [r4, #8]
 8001984:	2b01      	cmp	r3, #1
 8001986:	d021      	beq.n	80019cc <HAL_RCC_OscConfig+0x26c>
 8001988:	2b00      	cmp	r3, #0
 800198a:	d137      	bne.n	80019fc <HAL_RCC_OscConfig+0x29c>
 800198c:	4b21      	ldr	r3, [pc, #132]	; (8001a14 <HAL_RCC_OscConfig+0x2b4>)
 800198e:	6f1a      	ldr	r2, [r3, #112]	; 0x70
 8001990:	f022 0201 	bic.w	r2, r2, #1
 8001994:	671a      	str	r2, [r3, #112]	; 0x70
 8001996:	6f1a      	ldr	r2, [r3, #112]	; 0x70
 8001998:	f022 0204 	bic.w	r2, r2, #4
 800199c:	671a      	str	r2, [r3, #112]	; 0x70
 800199e:	e01a      	b.n	80019d6 <HAL_RCC_OscConfig+0x276>
 80019a0:	2500      	movs	r5, #0
 80019a2:	e7e9      	b.n	8001978 <HAL_RCC_OscConfig+0x218>
 80019a4:	4a1c      	ldr	r2, [pc, #112]	; (8001a18 <HAL_RCC_OscConfig+0x2b8>)
 80019a6:	6813      	ldr	r3, [r2, #0]
 80019a8:	f443 7380 	orr.w	r3, r3, #256	; 0x100
 80019ac:	6013      	str	r3, [r2, #0]
 80019ae:	f000 fe19 	bl	80025e4 <HAL_GetTick>
 80019b2:	4606      	mov	r6, r0
 80019b4:	4b18      	ldr	r3, [pc, #96]	; (8001a18 <HAL_RCC_OscConfig+0x2b8>)
 80019b6:	681b      	ldr	r3, [r3, #0]
 80019b8:	f413 7f80 	tst.w	r3, #256	; 0x100
 80019bc:	d1e1      	bne.n	8001982 <HAL_RCC_OscConfig+0x222>
 80019be:	f000 fe11 	bl	80025e4 <HAL_GetTick>
 80019c2:	1b80      	subs	r0, r0, r6
 80019c4:	2864      	cmp	r0, #100	; 0x64
 80019c6:	d9f5      	bls.n	80019b4 <HAL_RCC_OscConfig+0x254>
 80019c8:	2003      	movs	r0, #3
 80019ca:	e0ad      	b.n	8001b28 <HAL_RCC_OscConfig+0x3c8>
 80019cc:	4a11      	ldr	r2, [pc, #68]	; (8001a14 <HAL_RCC_OscConfig+0x2b4>)
 80019ce:	6f13      	ldr	r3, [r2, #112]	; 0x70
 80019d0:	f043 0301 	orr.w	r3, r3, #1
 80019d4:	6713      	str	r3, [r2, #112]	; 0x70
 80019d6:	68a3      	ldr	r3, [r4, #8]
 80019d8:	b353      	cbz	r3, 8001a30 <HAL_RCC_OscConfig+0x2d0>
 80019da:	f000 fe03 	bl	80025e4 <HAL_GetTick>
 80019de:	4606      	mov	r6, r0
 80019e0:	4b0c      	ldr	r3, [pc, #48]	; (8001a14 <HAL_RCC_OscConfig+0x2b4>)
 80019e2:	6f1b      	ldr	r3, [r3, #112]	; 0x70
 80019e4:	f013 0f02 	tst.w	r3, #2
 80019e8:	d133      	bne.n	8001a52 <HAL_RCC_OscConfig+0x2f2>
 80019ea:	f000 fdfb 	bl	80025e4 <HAL_GetTick>
 80019ee:	1b80      	subs	r0, r0, r6
 80019f0:	f241 3388 	movw	r3, #5000	; 0x1388
 80019f4:	4298      	cmp	r0, r3
 80019f6:	d9f3      	bls.n	80019e0 <HAL_RCC_OscConfig+0x280>
 80019f8:	2003      	movs	r0, #3
 80019fa:	e095      	b.n	8001b28 <HAL_RCC_OscConfig+0x3c8>
 80019fc:	2b05      	cmp	r3, #5
 80019fe:	d00d      	beq.n	8001a1c <HAL_RCC_OscConfig+0x2bc>
 8001a00:	4b04      	ldr	r3, [pc, #16]	; (8001a14 <HAL_RCC_OscConfig+0x2b4>)
 8001a02:	6f1a      	ldr	r2, [r3, #112]	; 0x70
 8001a04:	f022 0201 	bic.w	r2, r2, #1
 8001a08:	671a      	str	r2, [r3, #112]	; 0x70
 8001a0a:	6f1a      	ldr	r2, [r3, #112]	; 0x70
 8001a0c:	f022 0204 	bic.w	r2, r2, #4
 8001a10:	671a      	str	r2, [r3, #112]	; 0x70
 8001a12:	e7e0      	b.n	80019d6 <HAL_RCC_OscConfig+0x276>
 8001a14:	40023800 	andmi	r3, r2, r0, lsl #16
 8001a18:	40007000 	andmi	r7, r0, r0
 8001a1c:	4b44      	ldr	r3, [pc, #272]	; (8001b30 <HAL_RCC_OscConfig+0x3d0>)
 8001a1e:	6f1a      	ldr	r2, [r3, #112]	; 0x70
 8001a20:	f042 0204 	orr.w	r2, r2, #4
 8001a24:	671a      	str	r2, [r3, #112]	; 0x70
 8001a26:	6f1a      	ldr	r2, [r3, #112]	; 0x70
 8001a28:	f042 0201 	orr.w	r2, r2, #1
 8001a2c:	671a      	str	r2, [r3, #112]	; 0x70
 8001a2e:	e7d2      	b.n	80019d6 <HAL_RCC_OscConfig+0x276>
 8001a30:	f000 fdd8 	bl	80025e4 <HAL_GetTick>
 8001a34:	4606      	mov	r6, r0
 8001a36:	4b3e      	ldr	r3, [pc, #248]	; (8001b30 <HAL_RCC_OscConfig+0x3d0>)
 8001a38:	6f1b      	ldr	r3, [r3, #112]	; 0x70
 8001a3a:	f013 0f02 	tst.w	r3, #2
 8001a3e:	d008      	beq.n	8001a52 <HAL_RCC_OscConfig+0x2f2>
 8001a40:	f000 fdd0 	bl	80025e4 <HAL_GetTick>
 8001a44:	1b80      	subs	r0, r0, r6
 8001a46:	f241 3388 	movw	r3, #5000	; 0x1388
 8001a4a:	4298      	cmp	r0, r3
 8001a4c:	d9f3      	bls.n	8001a36 <HAL_RCC_OscConfig+0x2d6>
 8001a4e:	2003      	movs	r0, #3
 8001a50:	e06a      	b.n	8001b28 <HAL_RCC_OscConfig+0x3c8>
 8001a52:	b9f5      	cbnz	r5, 8001a92 <HAL_RCC_OscConfig+0x332>
 8001a54:	69a3      	ldr	r3, [r4, #24]
 8001a56:	2b00      	cmp	r3, #0
 8001a58:	d065      	beq.n	8001b26 <HAL_RCC_OscConfig+0x3c6>
 8001a5a:	4a35      	ldr	r2, [pc, #212]	; (8001b30 <HAL_RCC_OscConfig+0x3d0>)
 8001a5c:	6892      	ldr	r2, [r2, #8]
 8001a5e:	f002 020c 	and.w	r2, r2, #12
 8001a62:	2a08      	cmp	r2, #8
 8001a64:	d062      	beq.n	8001b2c <HAL_RCC_OscConfig+0x3cc>
 8001a66:	2b02      	cmp	r3, #2
 8001a68:	d019      	beq.n	8001a9e <HAL_RCC_OscConfig+0x33e>
 8001a6a:	4a31      	ldr	r2, [pc, #196]	; (8001b30 <HAL_RCC_OscConfig+0x3d0>)
 8001a6c:	6813      	ldr	r3, [r2, #0]
 8001a6e:	f023 7380 	bic.w	r3, r3, #16777216	; 0x1000000
 8001a72:	6013      	str	r3, [r2, #0]
 8001a74:	f000 fdb6 	bl	80025e4 <HAL_GetTick>
 8001a78:	4604      	mov	r4, r0
 8001a7a:	4b2d      	ldr	r3, [pc, #180]	; (8001b30 <HAL_RCC_OscConfig+0x3d0>)
 8001a7c:	681b      	ldr	r3, [r3, #0]
 8001a7e:	f013 7f00 	tst.w	r3, #33554432	; 0x2000000
 8001a82:	d048      	beq.n	8001b16 <HAL_RCC_OscConfig+0x3b6>
 8001a84:	f000 fdae 	bl	80025e4 <HAL_GetTick>
 8001a88:	1b00      	subs	r0, r0, r4
 8001a8a:	2802      	cmp	r0, #2
 8001a8c:	d9f5      	bls.n	8001a7a <HAL_RCC_OscConfig+0x31a>
 8001a8e:	2003      	movs	r0, #3
 8001a90:	e04a      	b.n	8001b28 <HAL_RCC_OscConfig+0x3c8>
 8001a92:	4a27      	ldr	r2, [pc, #156]	; (8001b30 <HAL_RCC_OscConfig+0x3d0>)
 8001a94:	6c13      	ldr	r3, [r2, #64]	; 0x40
 8001a96:	f023 5380 	bic.w	r3, r3, #268435456	; 0x10000000
 8001a9a:	6413      	str	r3, [r2, #64]	; 0x40
 8001a9c:	e7da      	b.n	8001a54 <HAL_RCC_OscConfig+0x2f4>
 8001a9e:	4a24      	ldr	r2, [pc, #144]	; (8001b30 <HAL_RCC_OscConfig+0x3d0>)
 8001aa0:	6813      	ldr	r3, [r2, #0]
 8001aa2:	f023 7380 	bic.w	r3, r3, #16777216	; 0x1000000
 8001aa6:	6013      	str	r3, [r2, #0]
 8001aa8:	f000 fd9c 	bl	80025e4 <HAL_GetTick>
 8001aac:	4605      	mov	r5, r0
 8001aae:	4b20      	ldr	r3, [pc, #128]	; (8001b30 <HAL_RCC_OscConfig+0x3d0>)
 8001ab0:	681b      	ldr	r3, [r3, #0]
 8001ab2:	f013 7f00 	tst.w	r3, #33554432	; 0x2000000
 8001ab6:	d006      	beq.n	8001ac6 <HAL_RCC_OscConfig+0x366>
 8001ab8:	f000 fd94 	bl	80025e4 <HAL_GetTick>
 8001abc:	1b40      	subs	r0, r0, r5
 8001abe:	2802      	cmp	r0, #2
 8001ac0:	d9f5      	bls.n	8001aae <HAL_RCC_OscConfig+0x34e>
 8001ac2:	2003      	movs	r0, #3
 8001ac4:	e030      	b.n	8001b28 <HAL_RCC_OscConfig+0x3c8>
 8001ac6:	69e3      	ldr	r3, [r4, #28]
 8001ac8:	6a22      	ldr	r2, [r4, #32]
 8001aca:	4313      	orrs	r3, r2
 8001acc:	6a62      	ldr	r2, [r4, #36]	; 0x24
 8001ace:	ea43 1382 	orr.w	r3, r3, r2, lsl #6
 8001ad2:	6aa2      	ldr	r2, [r4, #40]	; 0x28
 8001ad4:	0852      	lsrs	r2, r2, #1
 8001ad6:	3a01      	subs	r2, #1
 8001ad8:	ea43 4302 	orr.w	r3, r3, r2, lsl #16
 8001adc:	6ae2      	ldr	r2, [r4, #44]	; 0x2c
 8001ade:	ea43 6302 	orr.w	r3, r3, r2, lsl #24
 8001ae2:	6b22      	ldr	r2, [r4, #48]	; 0x30
 8001ae4:	ea43 7302 	orr.w	r3, r3, r2, lsl #28
 8001ae8:	4a11      	ldr	r2, [pc, #68]	; (8001b30 <HAL_RCC_OscConfig+0x3d0>)
 8001aea:	6053      	str	r3, [r2, #4]
 8001aec:	6813      	ldr	r3, [r2, #0]
 8001aee:	f043 7380 	orr.w	r3, r3, #16777216	; 0x1000000
 8001af2:	6013      	str	r3, [r2, #0]
 8001af4:	f000 fd76 	bl	80025e4 <HAL_GetTick>
 8001af8:	4604      	mov	r4, r0
 8001afa:	4b0d      	ldr	r3, [pc, #52]	; (8001b30 <HAL_RCC_OscConfig+0x3d0>)
 8001afc:	681b      	ldr	r3, [r3, #0]
 8001afe:	f013 7f00 	tst.w	r3, #33554432	; 0x2000000
 8001b02:	d106      	bne.n	8001b12 <HAL_RCC_OscConfig+0x3b2>
 8001b04:	f000 fd6e 	bl	80025e4 <HAL_GetTick>
 8001b08:	1b00      	subs	r0, r0, r4
 8001b0a:	2802      	cmp	r0, #2
 8001b0c:	d9f5      	bls.n	8001afa <HAL_RCC_OscConfig+0x39a>
 8001b0e:	2003      	movs	r0, #3
 8001b10:	e00a      	b.n	8001b28 <HAL_RCC_OscConfig+0x3c8>
 8001b12:	2000      	movs	r0, #0
 8001b14:	e008      	b.n	8001b28 <HAL_RCC_OscConfig+0x3c8>
 8001b16:	2000      	movs	r0, #0
 8001b18:	e006      	b.n	8001b28 <HAL_RCC_OscConfig+0x3c8>
 8001b1a:	2001      	movs	r0, #1
 8001b1c:	4770      	bx	lr
 8001b1e:	2001      	movs	r0, #1
 8001b20:	e002      	b.n	8001b28 <HAL_RCC_OscConfig+0x3c8>
 8001b22:	2001      	movs	r0, #1
 8001b24:	e000      	b.n	8001b28 <HAL_RCC_OscConfig+0x3c8>
 8001b26:	2000      	movs	r0, #0
 8001b28:	b002      	add	sp, #8
 8001b2a:	bd70      	pop	{r4, r5, r6, pc}
 8001b2c:	2001      	movs	r0, #1
 8001b2e:	e7fb      	b.n	8001b28 <HAL_RCC_OscConfig+0x3c8>
 8001b30:	40023800 	andmi	r3, r2, r0, lsl #16

08001b34 <HAL_RCC_GetSysClockFreq>:
 8001b34:	4b25      	ldr	r3, [pc, #148]	; (8001bcc <HAL_RCC_GetSysClockFreq+0x98>)
 8001b36:	689b      	ldr	r3, [r3, #8]
 8001b38:	f003 030c 	and.w	r3, r3, #12
 8001b3c:	2b04      	cmp	r3, #4
 8001b3e:	d040      	beq.n	8001bc2 <HAL_RCC_GetSysClockFreq+0x8e>
 8001b40:	2b08      	cmp	r3, #8
 8001b42:	d140      	bne.n	8001bc6 <HAL_RCC_GetSysClockFreq+0x92>
 8001b44:	b570      	push	{r4, r5, r6, lr}
 8001b46:	4b21      	ldr	r3, [pc, #132]	; (8001bcc <HAL_RCC_GetSysClockFreq+0x98>)
 8001b48:	685a      	ldr	r2, [r3, #4]
 8001b4a:	f002 023f 	and.w	r2, r2, #63	; 0x3f
 8001b4e:	685b      	ldr	r3, [r3, #4]
 8001b50:	f413 0f80 	tst.w	r3, #4194304	; 0x400000
 8001b54:	d012      	beq.n	8001b7c <HAL_RCC_GetSysClockFreq+0x48>
 8001b56:	4b1d      	ldr	r3, [pc, #116]	; (8001bcc <HAL_RCC_GetSysClockFreq+0x98>)
 8001b58:	6859      	ldr	r1, [r3, #4]
 8001b5a:	f3c1 1188 	ubfx	r1, r1, #6, #9
 8001b5e:	2300      	movs	r3, #0
 8001b60:	481b      	ldr	r0, [pc, #108]	; (8001bd0 <HAL_RCC_GetSysClockFreq+0x9c>)
 8001b62:	fba1 0100 	umull	r0, r1, r1, r0
 8001b66:	f7fe fb73 	bl	8000250 <__aeabi_uldivmod>
 8001b6a:	4b18      	ldr	r3, [pc, #96]	; (8001bcc <HAL_RCC_GetSysClockFreq+0x98>)
 8001b6c:	685b      	ldr	r3, [r3, #4]
 8001b6e:	f3c3 4301 	ubfx	r3, r3, #16, #2
 8001b72:	3301      	adds	r3, #1
 8001b74:	005b      	lsls	r3, r3, #1
 8001b76:	fbb0 f0f3 	udiv	r0, r0, r3
 8001b7a:	bd70      	pop	{r4, r5, r6, pc}
 8001b7c:	4b13      	ldr	r3, [pc, #76]	; (8001bcc <HAL_RCC_GetSysClockFreq+0x98>)
 8001b7e:	6858      	ldr	r0, [r3, #4]
 8001b80:	f3c0 1088 	ubfx	r0, r0, #6, #9
 8001b84:	4605      	mov	r5, r0
 8001b86:	2600      	movs	r6, #0
 8001b88:	0143      	lsls	r3, r0, #5
 8001b8a:	1a1b      	subs	r3, r3, r0
 8001b8c:	eb66 0406 	sbc.w	r4, r6, r6
 8001b90:	01a1      	lsls	r1, r4, #6
 8001b92:	ea41 6193 	orr.w	r1, r1, r3, lsr #26
 8001b96:	0198      	lsls	r0, r3, #6
 8001b98:	1ac0      	subs	r0, r0, r3
 8001b9a:	eb61 0104 	sbc.w	r1, r1, r4
 8001b9e:	00cb      	lsls	r3, r1, #3
 8001ba0:	ea43 7350 	orr.w	r3, r3, r0, lsr #29
 8001ba4:	00c4      	lsls	r4, r0, #3
 8001ba6:	4619      	mov	r1, r3
 8001ba8:	1960      	adds	r0, r4, r5
 8001baa:	eb46 0101 	adc.w	r1, r6, r1
 8001bae:	028b      	lsls	r3, r1, #10
 8001bb0:	ea43 5390 	orr.w	r3, r3, r0, lsr #22
 8001bb4:	0284      	lsls	r4, r0, #10
 8001bb6:	4620      	mov	r0, r4
 8001bb8:	4619      	mov	r1, r3
 8001bba:	4633      	mov	r3, r6
 8001bbc:	f7fe fb48 	bl	8000250 <__aeabi_uldivmod>
 8001bc0:	e7d3      	b.n	8001b6a <HAL_RCC_GetSysClockFreq+0x36>
 8001bc2:	4803      	ldr	r0, [pc, #12]	; (8001bd0 <HAL_RCC_GetSysClockFreq+0x9c>)
 8001bc4:	4770      	bx	lr
 8001bc6:	4803      	ldr	r0, [pc, #12]	; (8001bd4 <HAL_RCC_GetSysClockFreq+0xa0>)
 8001bc8:	4770      	bx	lr
 8001bca:	bf00      	nop
 8001bcc:	40023800 	andmi	r3, r2, r0, lsl #16
 8001bd0:	017d7840 	cmneq	sp, r0, asr #16
 8001bd4:	00f42400 	rscseq	r2, r4, r0, lsl #8

08001bd8 <HAL_RCC_ClockConfig>:
 8001bd8:	2800      	cmp	r0, #0
 8001bda:	f000 809f 	beq.w	8001d1c <HAL_RCC_ClockConfig+0x144>
 8001bde:	b570      	push	{r4, r5, r6, lr}
 8001be0:	4604      	mov	r4, r0
 8001be2:	4b52      	ldr	r3, [pc, #328]	; (8001d2c <HAL_RCC_ClockConfig+0x154>)
 8001be4:	681b      	ldr	r3, [r3, #0]
 8001be6:	f003 030f 	and.w	r3, r3, #15
 8001bea:	428b      	cmp	r3, r1
 8001bec:	d20b      	bcs.n	8001c06 <HAL_RCC_ClockConfig+0x2e>
 8001bee:	4a4f      	ldr	r2, [pc, #316]	; (8001d2c <HAL_RCC_ClockConfig+0x154>)
 8001bf0:	6813      	ldr	r3, [r2, #0]
 8001bf2:	f023 030f 	bic.w	r3, r3, #15
 8001bf6:	430b      	orrs	r3, r1
 8001bf8:	6013      	str	r3, [r2, #0]
 8001bfa:	6813      	ldr	r3, [r2, #0]
 8001bfc:	f003 030f 	and.w	r3, r3, #15
 8001c00:	428b      	cmp	r3, r1
 8001c02:	f040 808d 	bne.w	8001d20 <HAL_RCC_ClockConfig+0x148>
 8001c06:	6823      	ldr	r3, [r4, #0]
 8001c08:	f013 0f02 	tst.w	r3, #2
 8001c0c:	d017      	beq.n	8001c3e <HAL_RCC_ClockConfig+0x66>
 8001c0e:	f013 0f04 	tst.w	r3, #4
 8001c12:	d004      	beq.n	8001c1e <HAL_RCC_ClockConfig+0x46>
 8001c14:	4a46      	ldr	r2, [pc, #280]	; (8001d30 <HAL_RCC_ClockConfig+0x158>)
 8001c16:	6893      	ldr	r3, [r2, #8]
 8001c18:	f443 53e0 	orr.w	r3, r3, #7168	; 0x1c00
 8001c1c:	6093      	str	r3, [r2, #8]
 8001c1e:	6823      	ldr	r3, [r4, #0]
 8001c20:	f013 0f08 	tst.w	r3, #8
 8001c24:	d004      	beq.n	8001c30 <HAL_RCC_ClockConfig+0x58>
 8001c26:	4a42      	ldr	r2, [pc, #264]	; (8001d30 <HAL_RCC_ClockConfig+0x158>)
 8001c28:	6893      	ldr	r3, [r2, #8]
 8001c2a:	f443 4360 	orr.w	r3, r3, #57344	; 0xe000
 8001c2e:	6093      	str	r3, [r2, #8]
 8001c30:	4a3f      	ldr	r2, [pc, #252]	; (8001d30 <HAL_RCC_ClockConfig+0x158>)
 8001c32:	6893      	ldr	r3, [r2, #8]
 8001c34:	f023 03f0 	bic.w	r3, r3, #240	; 0xf0
 8001c38:	68a0      	ldr	r0, [r4, #8]
 8001c3a:	4303      	orrs	r3, r0
 8001c3c:	6093      	str	r3, [r2, #8]
 8001c3e:	460d      	mov	r5, r1
 8001c40:	6823      	ldr	r3, [r4, #0]
 8001c42:	f013 0f01 	tst.w	r3, #1
 8001c46:	d031      	beq.n	8001cac <HAL_RCC_ClockConfig+0xd4>
 8001c48:	6863      	ldr	r3, [r4, #4]
 8001c4a:	2b01      	cmp	r3, #1
 8001c4c:	d020      	beq.n	8001c90 <HAL_RCC_ClockConfig+0xb8>
 8001c4e:	2b02      	cmp	r3, #2
 8001c50:	d025      	beq.n	8001c9e <HAL_RCC_ClockConfig+0xc6>
 8001c52:	4a37      	ldr	r2, [pc, #220]	; (8001d30 <HAL_RCC_ClockConfig+0x158>)
 8001c54:	6812      	ldr	r2, [r2, #0]
 8001c56:	f012 0f02 	tst.w	r2, #2
 8001c5a:	d063      	beq.n	8001d24 <HAL_RCC_ClockConfig+0x14c>
 8001c5c:	4934      	ldr	r1, [pc, #208]	; (8001d30 <HAL_RCC_ClockConfig+0x158>)
 8001c5e:	688a      	ldr	r2, [r1, #8]
 8001c60:	f022 0203 	bic.w	r2, r2, #3
 8001c64:	4313      	orrs	r3, r2
 8001c66:	608b      	str	r3, [r1, #8]
 8001c68:	f000 fcbc 	bl	80025e4 <HAL_GetTick>
 8001c6c:	4606      	mov	r6, r0
 8001c6e:	4b30      	ldr	r3, [pc, #192]	; (8001d30 <HAL_RCC_ClockConfig+0x158>)
 8001c70:	689b      	ldr	r3, [r3, #8]
 8001c72:	f003 030c 	and.w	r3, r3, #12
 8001c76:	6862      	ldr	r2, [r4, #4]
 8001c78:	ebb3 0f82 	cmp.w	r3, r2, lsl #2
 8001c7c:	d016      	beq.n	8001cac <HAL_RCC_ClockConfig+0xd4>
 8001c7e:	f000 fcb1 	bl	80025e4 <HAL_GetTick>
 8001c82:	1b80      	subs	r0, r0, r6
 8001c84:	f241 3388 	movw	r3, #5000	; 0x1388
 8001c88:	4298      	cmp	r0, r3
 8001c8a:	d9f0      	bls.n	8001c6e <HAL_RCC_ClockConfig+0x96>
 8001c8c:	2003      	movs	r0, #3
 8001c8e:	e044      	b.n	8001d1a <HAL_RCC_ClockConfig+0x142>
 8001c90:	4a27      	ldr	r2, [pc, #156]	; (8001d30 <HAL_RCC_ClockConfig+0x158>)
 8001c92:	6812      	ldr	r2, [r2, #0]
 8001c94:	f412 3f00 	tst.w	r2, #131072	; 0x20000
 8001c98:	d1e0      	bne.n	8001c5c <HAL_RCC_ClockConfig+0x84>
 8001c9a:	2001      	movs	r0, #1
 8001c9c:	e03d      	b.n	8001d1a <HAL_RCC_ClockConfig+0x142>
 8001c9e:	4a24      	ldr	r2, [pc, #144]	; (8001d30 <HAL_RCC_ClockConfig+0x158>)
 8001ca0:	6812      	ldr	r2, [r2, #0]
 8001ca2:	f012 7f00 	tst.w	r2, #33554432	; 0x2000000
 8001ca6:	d1d9      	bne.n	8001c5c <HAL_RCC_ClockConfig+0x84>
 8001ca8:	2001      	movs	r0, #1
 8001caa:	e036      	b.n	8001d1a <HAL_RCC_ClockConfig+0x142>
 8001cac:	4b1f      	ldr	r3, [pc, #124]	; (8001d2c <HAL_RCC_ClockConfig+0x154>)
 8001cae:	681b      	ldr	r3, [r3, #0]
 8001cb0:	f003 030f 	and.w	r3, r3, #15
 8001cb4:	42ab      	cmp	r3, r5
 8001cb6:	d90a      	bls.n	8001cce <HAL_RCC_ClockConfig+0xf6>
 8001cb8:	4a1c      	ldr	r2, [pc, #112]	; (8001d2c <HAL_RCC_ClockConfig+0x154>)
 8001cba:	6813      	ldr	r3, [r2, #0]
 8001cbc:	f023 030f 	bic.w	r3, r3, #15
 8001cc0:	432b      	orrs	r3, r5
 8001cc2:	6013      	str	r3, [r2, #0]
 8001cc4:	6813      	ldr	r3, [r2, #0]
 8001cc6:	f003 030f 	and.w	r3, r3, #15
 8001cca:	42ab      	cmp	r3, r5
 8001ccc:	d12c      	bne.n	8001d28 <HAL_RCC_ClockConfig+0x150>
 8001cce:	6823      	ldr	r3, [r4, #0]
 8001cd0:	f013 0f04 	tst.w	r3, #4
 8001cd4:	d006      	beq.n	8001ce4 <HAL_RCC_ClockConfig+0x10c>
 8001cd6:	4a16      	ldr	r2, [pc, #88]	; (8001d30 <HAL_RCC_ClockConfig+0x158>)
 8001cd8:	6893      	ldr	r3, [r2, #8]
 8001cda:	f423 53e0 	bic.w	r3, r3, #7168	; 0x1c00
 8001cde:	68e1      	ldr	r1, [r4, #12]
 8001ce0:	430b      	orrs	r3, r1
 8001ce2:	6093      	str	r3, [r2, #8]
 8001ce4:	6823      	ldr	r3, [r4, #0]
 8001ce6:	f013 0f08 	tst.w	r3, #8
 8001cea:	d007      	beq.n	8001cfc <HAL_RCC_ClockConfig+0x124>
 8001cec:	4a10      	ldr	r2, [pc, #64]	; (8001d30 <HAL_RCC_ClockConfig+0x158>)
 8001cee:	6893      	ldr	r3, [r2, #8]
 8001cf0:	f423 4360 	bic.w	r3, r3, #57344	; 0xe000
 8001cf4:	6921      	ldr	r1, [r4, #16]
 8001cf6:	ea43 03c1 	orr.w	r3, r3, r1, lsl #3
 8001cfa:	6093      	str	r3, [r2, #8]
 8001cfc:	f7ff ff1a 	bl	8001b34 <HAL_RCC_GetSysClockFreq>
 8001d00:	4b0b      	ldr	r3, [pc, #44]	; (8001d30 <HAL_RCC_ClockConfig+0x158>)
 8001d02:	689b      	ldr	r3, [r3, #8]
 8001d04:	f3c3 1303 	ubfx	r3, r3, #4, #4
 8001d08:	4a0a      	ldr	r2, [pc, #40]	; (8001d34 <HAL_RCC_ClockConfig+0x15c>)
 8001d0a:	5cd3      	ldrb	r3, [r2, r3]
 8001d0c:	40d8      	lsrs	r0, r3
 8001d0e:	4b0a      	ldr	r3, [pc, #40]	; (8001d38 <HAL_RCC_ClockConfig+0x160>)
 8001d10:	6018      	str	r0, [r3, #0]
 8001d12:	2000      	movs	r0, #0
 8001d14:	f7ff f854 	bl	8000dc0 <HAL_InitTick>
 8001d18:	2000      	movs	r0, #0
 8001d1a:	bd70      	pop	{r4, r5, r6, pc}
 8001d1c:	2001      	movs	r0, #1
 8001d1e:	4770      	bx	lr
 8001d20:	2001      	movs	r0, #1
 8001d22:	e7fa      	b.n	8001d1a <HAL_RCC_ClockConfig+0x142>
 8001d24:	2001      	movs	r0, #1
 8001d26:	e7f8      	b.n	8001d1a <HAL_RCC_ClockConfig+0x142>
 8001d28:	2001      	movs	r0, #1
 8001d2a:	e7f6      	b.n	8001d1a <HAL_RCC_ClockConfig+0x142>
 8001d2c:	40023c00 	andmi	r3, r2, r0, lsl #24
 8001d30:	40023800 	andmi	r3, r2, r0, lsl #16
 8001d34:	08004ac0 	stmdaeq	r0, {r6, r7, r9, fp, lr}
 8001d38:	20000004 	andcs	r0, r0, r4

08001d3c <HAL_RCC_GetHCLKFreq>:
 8001d3c:	4b01      	ldr	r3, [pc, #4]	; (8001d44 <HAL_RCC_GetHCLKFreq+0x8>)
 8001d3e:	6818      	ldr	r0, [r3, #0]
 8001d40:	4770      	bx	lr
 8001d42:	bf00      	nop
 8001d44:	20000004 	andcs	r0, r0, r4

08001d48 <HAL_RCC_GetPCLK1Freq>:
 8001d48:	b508      	push	{r3, lr}
 8001d4a:	f7ff fff7 	bl	8001d3c <HAL_RCC_GetHCLKFreq>
 8001d4e:	4b04      	ldr	r3, [pc, #16]	; (8001d60 <HAL_RCC_GetPCLK1Freq+0x18>)
 8001d50:	689b      	ldr	r3, [r3, #8]
 8001d52:	f3c3 2382 	ubfx	r3, r3, #10, #3
 8001d56:	4a03      	ldr	r2, [pc, #12]	; (8001d64 <HAL_RCC_GetPCLK1Freq+0x1c>)
 8001d58:	5cd3      	ldrb	r3, [r2, r3]
 8001d5a:	40d8      	lsrs	r0, r3
 8001d5c:	bd08      	pop	{r3, pc}
 8001d5e:	bf00      	nop
 8001d60:	40023800 	andmi	r3, r2, r0, lsl #16
 8001d64:	08004ad0 	stmdaeq	r0, {r4, r6, r7, r9, fp, lr}

08001d68 <HAL_RCC_GetPCLK2Freq>:
 8001d68:	b508      	push	{r3, lr}
 8001d6a:	f7ff ffe7 	bl	8001d3c <HAL_RCC_GetHCLKFreq>
 8001d6e:	4b04      	ldr	r3, [pc, #16]	; (8001d80 <HAL_RCC_GetPCLK2Freq+0x18>)
 8001d70:	689b      	ldr	r3, [r3, #8]
 8001d72:	f3c3 3342 	ubfx	r3, r3, #13, #3
 8001d76:	4a03      	ldr	r2, [pc, #12]	; (8001d84 <HAL_RCC_GetPCLK2Freq+0x1c>)
 8001d78:	5cd3      	ldrb	r3, [r2, r3]
 8001d7a:	40d8      	lsrs	r0, r3
 8001d7c:	bd08      	pop	{r3, pc}
 8001d7e:	bf00      	nop
 8001d80:	40023800 	andmi	r3, r2, r0, lsl #16
 8001d84:	08004ad0 	stmdaeq	r0, {r4, r6, r7, r9, fp, lr}

08001d88 <HAL_RCC_GetClockConfig>:
 8001d88:	230f      	movs	r3, #15
 8001d8a:	6003      	str	r3, [r0, #0]
 8001d8c:	4b0b      	ldr	r3, [pc, #44]	; (8001dbc <HAL_RCC_GetClockConfig+0x34>)
 8001d8e:	689a      	ldr	r2, [r3, #8]
 8001d90:	f002 0203 	and.w	r2, r2, #3
 8001d94:	6042      	str	r2, [r0, #4]
 8001d96:	689a      	ldr	r2, [r3, #8]
 8001d98:	f002 02f0 	and.w	r2, r2, #240	; 0xf0
 8001d9c:	6082      	str	r2, [r0, #8]
 8001d9e:	689a      	ldr	r2, [r3, #8]
 8001da0:	f402 52e0 	and.w	r2, r2, #7168	; 0x1c00
 8001da4:	60c2      	str	r2, [r0, #12]
 8001da6:	689b      	ldr	r3, [r3, #8]
 8001da8:	08db      	lsrs	r3, r3, #3
 8001daa:	f403 53e0 	and.w	r3, r3, #7168	; 0x1c00
 8001dae:	6103      	str	r3, [r0, #16]
 8001db0:	4b03      	ldr	r3, [pc, #12]	; (8001dc0 <HAL_RCC_GetClockConfig+0x38>)
 8001db2:	681b      	ldr	r3, [r3, #0]
 8001db4:	f003 030f 	and.w	r3, r3, #15
 8001db8:	600b      	str	r3, [r1, #0]
 8001dba:	4770      	bx	lr
 8001dbc:	40023800 	andmi	r3, r2, r0, lsl #16
 8001dc0:	40023c00 	andmi	r3, r2, r0, lsl #24

08001dc4 <HAL_RCCEx_PeriphCLKConfig>:
 8001dc4:	b5f0      	push	{r4, r5, r6, r7, lr}
 8001dc6:	b083      	sub	sp, #12
 8001dc8:	4604      	mov	r4, r0
 8001dca:	6803      	ldr	r3, [r0, #0]
 8001dcc:	f013 0f01 	tst.w	r3, #1
 8001dd0:	d00c      	beq.n	8001dec <HAL_RCCEx_PeriphCLKConfig+0x28>
 8001dd2:	4bb5      	ldr	r3, [pc, #724]	; (80020a8 <HAL_RCCEx_PeriphCLKConfig+0x2e4>)
 8001dd4:	689a      	ldr	r2, [r3, #8]
 8001dd6:	f422 0200 	bic.w	r2, r2, #8388608	; 0x800000
 8001dda:	609a      	str	r2, [r3, #8]
 8001ddc:	689a      	ldr	r2, [r3, #8]
 8001dde:	6b41      	ldr	r1, [r0, #52]	; 0x34
 8001de0:	430a      	orrs	r2, r1
 8001de2:	609a      	str	r2, [r3, #8]
 8001de4:	6b43      	ldr	r3, [r0, #52]	; 0x34
 8001de6:	b1c3      	cbz	r3, 8001e1a <HAL_RCCEx_PeriphCLKConfig+0x56>
 8001de8:	2700      	movs	r7, #0
 8001dea:	e000      	b.n	8001dee <HAL_RCCEx_PeriphCLKConfig+0x2a>
 8001dec:	2700      	movs	r7, #0
 8001dee:	6823      	ldr	r3, [r4, #0]
 8001df0:	f413 2f00 	tst.w	r3, #524288	; 0x80000
 8001df4:	d015      	beq.n	8001e22 <HAL_RCCEx_PeriphCLKConfig+0x5e>
 8001df6:	4aac      	ldr	r2, [pc, #688]	; (80020a8 <HAL_RCCEx_PeriphCLKConfig+0x2e4>)
 8001df8:	f8d2 308c 	ldr.w	r3, [r2, #140]	; 0x8c
 8001dfc:	f423 1340 	bic.w	r3, r3, #3145728	; 0x300000
 8001e00:	6be1      	ldr	r1, [r4, #60]	; 0x3c
 8001e02:	430b      	orrs	r3, r1
 8001e04:	f8c2 308c 	str.w	r3, [r2, #140]	; 0x8c
 8001e08:	6be3      	ldr	r3, [r4, #60]	; 0x3c
 8001e0a:	f5b3 1f80 	cmp.w	r3, #1048576	; 0x100000
 8001e0e:	d006      	beq.n	8001e1e <HAL_RCCEx_PeriphCLKConfig+0x5a>
 8001e10:	2b00      	cmp	r3, #0
 8001e12:	f000 8145 	beq.w	80020a0 <HAL_RCCEx_PeriphCLKConfig+0x2dc>
 8001e16:	2500      	movs	r5, #0
 8001e18:	e004      	b.n	8001e24 <HAL_RCCEx_PeriphCLKConfig+0x60>
 8001e1a:	2701      	movs	r7, #1
 8001e1c:	e7e7      	b.n	8001dee <HAL_RCCEx_PeriphCLKConfig+0x2a>
 8001e1e:	2701      	movs	r7, #1
 8001e20:	e7f6      	b.n	8001e10 <HAL_RCCEx_PeriphCLKConfig+0x4c>
 8001e22:	2500      	movs	r5, #0
 8001e24:	6823      	ldr	r3, [r4, #0]
 8001e26:	f413 1f80 	tst.w	r3, #1048576	; 0x100000
 8001e2a:	d00f      	beq.n	8001e4c <HAL_RCCEx_PeriphCLKConfig+0x88>
 8001e2c:	4a9e      	ldr	r2, [pc, #632]	; (80020a8 <HAL_RCCEx_PeriphCLKConfig+0x2e4>)
 8001e2e:	f8d2 308c 	ldr.w	r3, [r2, #140]	; 0x8c
 8001e32:	f423 0340 	bic.w	r3, r3, #12582912	; 0xc00000
 8001e36:	6c21      	ldr	r1, [r4, #64]	; 0x40
 8001e38:	430b      	orrs	r3, r1
 8001e3a:	f8c2 308c 	str.w	r3, [r2, #140]	; 0x8c
 8001e3e:	6c23      	ldr	r3, [r4, #64]	; 0x40
 8001e40:	f5b3 0f80 	cmp.w	r3, #4194304	; 0x400000
 8001e44:	f000 812e 	beq.w	80020a4 <HAL_RCCEx_PeriphCLKConfig+0x2e0>
 8001e48:	b903      	cbnz	r3, 8001e4c <HAL_RCCEx_PeriphCLKConfig+0x88>
 8001e4a:	2501      	movs	r5, #1
 8001e4c:	6823      	ldr	r3, [r4, #0]
 8001e4e:	f013 7f80 	tst.w	r3, #16777216	; 0x1000000
 8001e52:	d000      	beq.n	8001e56 <HAL_RCCEx_PeriphCLKConfig+0x92>
 8001e54:	2701      	movs	r7, #1
 8001e56:	f013 0f20 	tst.w	r3, #32
 8001e5a:	f040 8127 	bne.w	80020ac <HAL_RCCEx_PeriphCLKConfig+0x2e8>
 8001e5e:	6823      	ldr	r3, [r4, #0]
 8001e60:	f013 0f10 	tst.w	r3, #16
 8001e64:	d00c      	beq.n	8001e80 <HAL_RCCEx_PeriphCLKConfig+0xbc>
 8001e66:	4b90      	ldr	r3, [pc, #576]	; (80020a8 <HAL_RCCEx_PeriphCLKConfig+0x2e4>)
 8001e68:	f8d3 208c 	ldr.w	r2, [r3, #140]	; 0x8c
 8001e6c:	f022 7280 	bic.w	r2, r2, #16777216	; 0x1000000
 8001e70:	f8c3 208c 	str.w	r2, [r3, #140]	; 0x8c
 8001e74:	f8d3 208c 	ldr.w	r2, [r3, #140]	; 0x8c
 8001e78:	6ba1      	ldr	r1, [r4, #56]	; 0x38
 8001e7a:	430a      	orrs	r2, r1
 8001e7c:	f8c3 208c 	str.w	r2, [r3, #140]	; 0x8c
 8001e80:	6823      	ldr	r3, [r4, #0]
 8001e82:	f413 4f80 	tst.w	r3, #16384	; 0x4000
 8001e86:	d008      	beq.n	8001e9a <HAL_RCCEx_PeriphCLKConfig+0xd6>
 8001e88:	4a87      	ldr	r2, [pc, #540]	; (80020a8 <HAL_RCCEx_PeriphCLKConfig+0x2e4>)
 8001e8a:	f8d2 3090 	ldr.w	r3, [r2, #144]	; 0x90
 8001e8e:	f423 3340 	bic.w	r3, r3, #196608	; 0x30000
 8001e92:	6e61      	ldr	r1, [r4, #100]	; 0x64
 8001e94:	430b      	orrs	r3, r1
 8001e96:	f8c2 3090 	str.w	r3, [r2, #144]	; 0x90
 8001e9a:	6823      	ldr	r3, [r4, #0]
 8001e9c:	f413 4f00 	tst.w	r3, #32768	; 0x8000
 8001ea0:	d008      	beq.n	8001eb4 <HAL_RCCEx_PeriphCLKConfig+0xf0>
 8001ea2:	4a81      	ldr	r2, [pc, #516]	; (80020a8 <HAL_RCCEx_PeriphCLKConfig+0x2e4>)
 8001ea4:	f8d2 3090 	ldr.w	r3, [r2, #144]	; 0x90
 8001ea8:	f423 2340 	bic.w	r3, r3, #786432	; 0xc0000
 8001eac:	6ea1      	ldr	r1, [r4, #104]	; 0x68
 8001eae:	430b      	orrs	r3, r1
 8001eb0:	f8c2 3090 	str.w	r3, [r2, #144]	; 0x90
 8001eb4:	6823      	ldr	r3, [r4, #0]
 8001eb6:	f413 3f80 	tst.w	r3, #65536	; 0x10000
 8001eba:	d008      	beq.n	8001ece <HAL_RCCEx_PeriphCLKConfig+0x10a>
 8001ebc:	4a7a      	ldr	r2, [pc, #488]	; (80020a8 <HAL_RCCEx_PeriphCLKConfig+0x2e4>)
 8001ebe:	f8d2 3090 	ldr.w	r3, [r2, #144]	; 0x90
 8001ec2:	f423 1340 	bic.w	r3, r3, #3145728	; 0x300000
 8001ec6:	6ee1      	ldr	r1, [r4, #108]	; 0x6c
 8001ec8:	430b      	orrs	r3, r1
 8001eca:	f8c2 3090 	str.w	r3, [r2, #144]	; 0x90
 8001ece:	6823      	ldr	r3, [r4, #0]
 8001ed0:	f413 3f00 	tst.w	r3, #131072	; 0x20000
 8001ed4:	d008      	beq.n	8001ee8 <HAL_RCCEx_PeriphCLKConfig+0x124>
 8001ed6:	4a74      	ldr	r2, [pc, #464]	; (80020a8 <HAL_RCCEx_PeriphCLKConfig+0x2e4>)
 8001ed8:	f8d2 3090 	ldr.w	r3, [r2, #144]	; 0x90
 8001edc:	f423 0340 	bic.w	r3, r3, #12582912	; 0xc00000
 8001ee0:	6f21      	ldr	r1, [r4, #112]	; 0x70
 8001ee2:	430b      	orrs	r3, r1
 8001ee4:	f8c2 3090 	str.w	r3, [r2, #144]	; 0x90
 8001ee8:	6823      	ldr	r3, [r4, #0]
 8001eea:	f013 0f40 	tst.w	r3, #64	; 0x40
 8001eee:	d008      	beq.n	8001f02 <HAL_RCCEx_PeriphCLKConfig+0x13e>
 8001ef0:	4a6d      	ldr	r2, [pc, #436]	; (80020a8 <HAL_RCCEx_PeriphCLKConfig+0x2e4>)
 8001ef2:	f8d2 3090 	ldr.w	r3, [r2, #144]	; 0x90
 8001ef6:	f023 0303 	bic.w	r3, r3, #3
 8001efa:	6c61      	ldr	r1, [r4, #68]	; 0x44
 8001efc:	430b      	orrs	r3, r1
 8001efe:	f8c2 3090 	str.w	r3, [r2, #144]	; 0x90
 8001f02:	6823      	ldr	r3, [r4, #0]
 8001f04:	f013 0f80 	tst.w	r3, #128	; 0x80
 8001f08:	d008      	beq.n	8001f1c <HAL_RCCEx_PeriphCLKConfig+0x158>
 8001f0a:	4a67      	ldr	r2, [pc, #412]	; (80020a8 <HAL_RCCEx_PeriphCLKConfig+0x2e4>)
 8001f0c:	f8d2 3090 	ldr.w	r3, [r2, #144]	; 0x90
 8001f10:	f023 030c 	bic.w	r3, r3, #12
 8001f14:	6ca1      	ldr	r1, [r4, #72]	; 0x48
 8001f16:	430b      	orrs	r3, r1
 8001f18:	f8c2 3090 	str.w	r3, [r2, #144]	; 0x90
 8001f1c:	6823      	ldr	r3, [r4, #0]
 8001f1e:	f413 7f80 	tst.w	r3, #256	; 0x100
 8001f22:	d008      	beq.n	8001f36 <HAL_RCCEx_PeriphCLKConfig+0x172>
 8001f24:	4a60      	ldr	r2, [pc, #384]	; (80020a8 <HAL_RCCEx_PeriphCLKConfig+0x2e4>)
 8001f26:	f8d2 3090 	ldr.w	r3, [r2, #144]	; 0x90
 8001f2a:	f023 0330 	bic.w	r3, r3, #48	; 0x30
 8001f2e:	6ce1      	ldr	r1, [r4, #76]	; 0x4c
 8001f30:	430b      	orrs	r3, r1
 8001f32:	f8c2 3090 	str.w	r3, [r2, #144]	; 0x90
 8001f36:	6823      	ldr	r3, [r4, #0]
 8001f38:	f413 7f00 	tst.w	r3, #512	; 0x200
 8001f3c:	d008      	beq.n	8001f50 <HAL_RCCEx_PeriphCLKConfig+0x18c>
 8001f3e:	4a5a      	ldr	r2, [pc, #360]	; (80020a8 <HAL_RCCEx_PeriphCLKConfig+0x2e4>)
 8001f40:	f8d2 3090 	ldr.w	r3, [r2, #144]	; 0x90
 8001f44:	f023 03c0 	bic.w	r3, r3, #192	; 0xc0
 8001f48:	6d21      	ldr	r1, [r4, #80]	; 0x50
 8001f4a:	430b      	orrs	r3, r1
 8001f4c:	f8c2 3090 	str.w	r3, [r2, #144]	; 0x90
 8001f50:	6823      	ldr	r3, [r4, #0]
 8001f52:	f413 6f80 	tst.w	r3, #1024	; 0x400
 8001f56:	d008      	beq.n	8001f6a <HAL_RCCEx_PeriphCLKConfig+0x1a6>
 8001f58:	4a53      	ldr	r2, [pc, #332]	; (80020a8 <HAL_RCCEx_PeriphCLKConfig+0x2e4>)
 8001f5a:	f8d2 3090 	ldr.w	r3, [r2, #144]	; 0x90
 8001f5e:	f423 7340 	bic.w	r3, r3, #768	; 0x300
 8001f62:	6d61      	ldr	r1, [r4, #84]	; 0x54
 8001f64:	430b      	orrs	r3, r1
 8001f66:	f8c2 3090 	str.w	r3, [r2, #144]	; 0x90
 8001f6a:	6823      	ldr	r3, [r4, #0]
 8001f6c:	f413 6f00 	tst.w	r3, #2048	; 0x800
 8001f70:	d008      	beq.n	8001f84 <HAL_RCCEx_PeriphCLKConfig+0x1c0>
 8001f72:	4a4d      	ldr	r2, [pc, #308]	; (80020a8 <HAL_RCCEx_PeriphCLKConfig+0x2e4>)
 8001f74:	f8d2 3090 	ldr.w	r3, [r2, #144]	; 0x90
 8001f78:	f423 6340 	bic.w	r3, r3, #3072	; 0xc00
 8001f7c:	6da1      	ldr	r1, [r4, #88]	; 0x58
 8001f7e:	430b      	orrs	r3, r1
 8001f80:	f8c2 3090 	str.w	r3, [r2, #144]	; 0x90
 8001f84:	6823      	ldr	r3, [r4, #0]
 8001f86:	f413 5f80 	tst.w	r3, #4096	; 0x1000
 8001f8a:	d008      	beq.n	8001f9e <HAL_RCCEx_PeriphCLKConfig+0x1da>
 8001f8c:	4a46      	ldr	r2, [pc, #280]	; (80020a8 <HAL_RCCEx_PeriphCLKConfig+0x2e4>)
 8001f8e:	f8d2 3090 	ldr.w	r3, [r2, #144]	; 0x90
 8001f92:	f423 5340 	bic.w	r3, r3, #12288	; 0x3000
 8001f96:	6de1      	ldr	r1, [r4, #92]	; 0x5c
 8001f98:	430b      	orrs	r3, r1
 8001f9a:	f8c2 3090 	str.w	r3, [r2, #144]	; 0x90
 8001f9e:	6823      	ldr	r3, [r4, #0]
 8001fa0:	f413 5f00 	tst.w	r3, #8192	; 0x2000
 8001fa4:	d008      	beq.n	8001fb8 <HAL_RCCEx_PeriphCLKConfig+0x1f4>
 8001fa6:	4a40      	ldr	r2, [pc, #256]	; (80020a8 <HAL_RCCEx_PeriphCLKConfig+0x2e4>)
 8001fa8:	f8d2 3090 	ldr.w	r3, [r2, #144]	; 0x90
 8001fac:	f423 4340 	bic.w	r3, r3, #49152	; 0xc000
 8001fb0:	6e21      	ldr	r1, [r4, #96]	; 0x60
 8001fb2:	430b      	orrs	r3, r1
 8001fb4:	f8c2 3090 	str.w	r3, [r2, #144]	; 0x90
 8001fb8:	6823      	ldr	r3, [r4, #0]
 8001fba:	f413 0f80 	tst.w	r3, #4194304	; 0x400000
 8001fbe:	d008      	beq.n	8001fd2 <HAL_RCCEx_PeriphCLKConfig+0x20e>
 8001fc0:	4a39      	ldr	r2, [pc, #228]	; (80020a8 <HAL_RCCEx_PeriphCLKConfig+0x2e4>)
 8001fc2:	f8d2 3090 	ldr.w	r3, [r2, #144]	; 0x90
 8001fc6:	f023 6380 	bic.w	r3, r3, #67108864	; 0x4000000
 8001fca:	6fa1      	ldr	r1, [r4, #120]	; 0x78
 8001fcc:	430b      	orrs	r3, r1
 8001fce:	f8c2 3090 	str.w	r3, [r2, #144]	; 0x90
 8001fd2:	6823      	ldr	r3, [r4, #0]
 8001fd4:	f413 1f00 	tst.w	r3, #2097152	; 0x200000
 8001fd8:	d00d      	beq.n	8001ff6 <HAL_RCCEx_PeriphCLKConfig+0x232>
 8001fda:	4a33      	ldr	r2, [pc, #204]	; (80020a8 <HAL_RCCEx_PeriphCLKConfig+0x2e4>)
 8001fdc:	f8d2 3090 	ldr.w	r3, [r2, #144]	; 0x90
 8001fe0:	f023 6300 	bic.w	r3, r3, #134217728	; 0x8000000
 8001fe4:	6fe1      	ldr	r1, [r4, #124]	; 0x7c
 8001fe6:	430b      	orrs	r3, r1
 8001fe8:	f8c2 3090 	str.w	r3, [r2, #144]	; 0x90
 8001fec:	6fe3      	ldr	r3, [r4, #124]	; 0x7c
 8001fee:	f1b3 6f00 	cmp.w	r3, #134217728	; 0x8000000
 8001ff2:	f000 80c1 	beq.w	8002178 <HAL_RCCEx_PeriphCLKConfig+0x3b4>
 8001ff6:	6823      	ldr	r3, [r4, #0]
 8001ff8:	f013 0f08 	tst.w	r3, #8
 8001ffc:	d000      	beq.n	8002000 <HAL_RCCEx_PeriphCLKConfig+0x23c>
 8001ffe:	2501      	movs	r5, #1
 8002000:	f413 2f80 	tst.w	r3, #262144	; 0x40000
 8002004:	d008      	beq.n	8002018 <HAL_RCCEx_PeriphCLKConfig+0x254>
 8002006:	4a28      	ldr	r2, [pc, #160]	; (80020a8 <HAL_RCCEx_PeriphCLKConfig+0x2e4>)
 8002008:	f8d2 3090 	ldr.w	r3, [r2, #144]	; 0x90
 800200c:	f023 7340 	bic.w	r3, r3, #50331648	; 0x3000000
 8002010:	6f61      	ldr	r1, [r4, #116]	; 0x74
 8002012:	430b      	orrs	r3, r1
 8002014:	f8c2 3090 	str.w	r3, [r2, #144]	; 0x90
 8002018:	6823      	ldr	r3, [r4, #0]
 800201a:	f413 0f00 	tst.w	r3, #8388608	; 0x800000
 800201e:	d009      	beq.n	8002034 <HAL_RCCEx_PeriphCLKConfig+0x270>
 8002020:	4a21      	ldr	r2, [pc, #132]	; (80020a8 <HAL_RCCEx_PeriphCLKConfig+0x2e4>)
 8002022:	f8d2 3090 	ldr.w	r3, [r2, #144]	; 0x90
 8002026:	f023 5380 	bic.w	r3, r3, #268435456	; 0x10000000
 800202a:	f8d4 1080 	ldr.w	r1, [r4, #128]	; 0x80
 800202e:	430b      	orrs	r3, r1
 8002030:	f8c2 3090 	str.w	r3, [r2, #144]	; 0x90
 8002034:	6823      	ldr	r3, [r4, #0]
 8002036:	f013 6f80 	tst.w	r3, #67108864	; 0x4000000
 800203a:	d009      	beq.n	8002050 <HAL_RCCEx_PeriphCLKConfig+0x28c>
 800203c:	4a1a      	ldr	r2, [pc, #104]	; (80020a8 <HAL_RCCEx_PeriphCLKConfig+0x2e4>)
 800203e:	f8d2 3090 	ldr.w	r3, [r2, #144]	; 0x90
 8002042:	f023 5300 	bic.w	r3, r3, #536870912	; 0x20000000
 8002046:	f8d4 1084 	ldr.w	r1, [r4, #132]	; 0x84
 800204a:	430b      	orrs	r3, r1
 800204c:	f8c2 3090 	str.w	r3, [r2, #144]	; 0x90
 8002050:	6823      	ldr	r3, [r4, #0]
 8002052:	f013 6f00 	tst.w	r3, #134217728	; 0x8000000
 8002056:	d009      	beq.n	800206c <HAL_RCCEx_PeriphCLKConfig+0x2a8>
 8002058:	4a13      	ldr	r2, [pc, #76]	; (80020a8 <HAL_RCCEx_PeriphCLKConfig+0x2e4>)
 800205a:	f8d2 308c 	ldr.w	r3, [r2, #140]	; 0x8c
 800205e:	f023 7300 	bic.w	r3, r3, #33554432	; 0x2000000
 8002062:	f8d4 1088 	ldr.w	r1, [r4, #136]	; 0x88
 8002066:	430b      	orrs	r3, r1
 8002068:	f8c2 308c 	str.w	r3, [r2, #140]	; 0x8c
 800206c:	6823      	ldr	r3, [r4, #0]
 800206e:	f013 5f80 	tst.w	r3, #268435456	; 0x10000000
 8002072:	d009      	beq.n	8002088 <HAL_RCCEx_PeriphCLKConfig+0x2c4>
 8002074:	4a0c      	ldr	r2, [pc, #48]	; (80020a8 <HAL_RCCEx_PeriphCLKConfig+0x2e4>)
 8002076:	f8d2 308c 	ldr.w	r3, [r2, #140]	; 0x8c
 800207a:	f023 6380 	bic.w	r3, r3, #67108864	; 0x4000000
 800207e:	f8d4 108c 	ldr.w	r1, [r4, #140]	; 0x8c
 8002082:	430b      	orrs	r3, r1
 8002084:	f8c2 308c 	str.w	r3, [r2, #140]	; 0x8c
 8002088:	2f00      	cmp	r7, #0
 800208a:	d177      	bne.n	800217c <HAL_RCCEx_PeriphCLKConfig+0x3b8>
 800208c:	6823      	ldr	r3, [r4, #0]
 800208e:	f1b3 7f00 	cmp.w	r3, #33554432	; 0x2000000
 8002092:	d073      	beq.n	800217c <HAL_RCCEx_PeriphCLKConfig+0x3b8>
 8002094:	2d00      	cmp	r5, #0
 8002096:	f040 8104 	bne.w	80022a2 <HAL_RCCEx_PeriphCLKConfig+0x4de>
 800209a:	2000      	movs	r0, #0
 800209c:	b003      	add	sp, #12
 800209e:	bdf0      	pop	{r4, r5, r6, r7, pc}
 80020a0:	2501      	movs	r5, #1
 80020a2:	e6bf      	b.n	8001e24 <HAL_RCCEx_PeriphCLKConfig+0x60>
 80020a4:	2701      	movs	r7, #1
 80020a6:	e6cf      	b.n	8001e48 <HAL_RCCEx_PeriphCLKConfig+0x84>
 80020a8:	40023800 	andmi	r3, r2, r0, lsl #16
 80020ac:	4bb7      	ldr	r3, [pc, #732]	; (800238c <HAL_RCCEx_PeriphCLKConfig+0x5c8>)
 80020ae:	6c1a      	ldr	r2, [r3, #64]	; 0x40
 80020b0:	f042 5280 	orr.w	r2, r2, #268435456	; 0x10000000
 80020b4:	641a      	str	r2, [r3, #64]	; 0x40
 80020b6:	6c1b      	ldr	r3, [r3, #64]	; 0x40
 80020b8:	f003 5380 	and.w	r3, r3, #268435456	; 0x10000000
 80020bc:	9301      	str	r3, [sp, #4]
 80020be:	9b01      	ldr	r3, [sp, #4]
 80020c0:	4ab3      	ldr	r2, [pc, #716]	; (8002390 <HAL_RCCEx_PeriphCLKConfig+0x5cc>)
 80020c2:	6813      	ldr	r3, [r2, #0]
 80020c4:	f443 7380 	orr.w	r3, r3, #256	; 0x100
 80020c8:	6013      	str	r3, [r2, #0]
 80020ca:	f000 fa8b 	bl	80025e4 <HAL_GetTick>
 80020ce:	4606      	mov	r6, r0
 80020d0:	4baf      	ldr	r3, [pc, #700]	; (8002390 <HAL_RCCEx_PeriphCLKConfig+0x5cc>)
 80020d2:	681b      	ldr	r3, [r3, #0]
 80020d4:	f413 7f80 	tst.w	r3, #256	; 0x100
 80020d8:	d106      	bne.n	80020e8 <HAL_RCCEx_PeriphCLKConfig+0x324>
 80020da:	f000 fa83 	bl	80025e4 <HAL_GetTick>
 80020de:	1b80      	subs	r0, r0, r6
 80020e0:	2864      	cmp	r0, #100	; 0x64
 80020e2:	d9f5      	bls.n	80020d0 <HAL_RCCEx_PeriphCLKConfig+0x30c>
 80020e4:	2003      	movs	r0, #3
 80020e6:	e7d9      	b.n	800209c <HAL_RCCEx_PeriphCLKConfig+0x2d8>
 80020e8:	4ba8      	ldr	r3, [pc, #672]	; (800238c <HAL_RCCEx_PeriphCLKConfig+0x5c8>)
 80020ea:	6f1b      	ldr	r3, [r3, #112]	; 0x70
 80020ec:	f413 7340 	ands.w	r3, r3, #768	; 0x300
 80020f0:	d015      	beq.n	800211e <HAL_RCCEx_PeriphCLKConfig+0x35a>
 80020f2:	6b22      	ldr	r2, [r4, #48]	; 0x30
 80020f4:	f402 7240 	and.w	r2, r2, #768	; 0x300
 80020f8:	429a      	cmp	r2, r3
 80020fa:	d010      	beq.n	800211e <HAL_RCCEx_PeriphCLKConfig+0x35a>
 80020fc:	4ba3      	ldr	r3, [pc, #652]	; (800238c <HAL_RCCEx_PeriphCLKConfig+0x5c8>)
 80020fe:	6f1a      	ldr	r2, [r3, #112]	; 0x70
 8002100:	f422 7240 	bic.w	r2, r2, #768	; 0x300
 8002104:	6f19      	ldr	r1, [r3, #112]	; 0x70
 8002106:	f441 3180 	orr.w	r1, r1, #65536	; 0x10000
 800210a:	6719      	str	r1, [r3, #112]	; 0x70
 800210c:	6f19      	ldr	r1, [r3, #112]	; 0x70
 800210e:	f421 3180 	bic.w	r1, r1, #65536	; 0x10000
 8002112:	6719      	str	r1, [r3, #112]	; 0x70
 8002114:	671a      	str	r2, [r3, #112]	; 0x70
 8002116:	6f1b      	ldr	r3, [r3, #112]	; 0x70
 8002118:	f013 0f01 	tst.w	r3, #1
 800211c:	d112      	bne.n	8002144 <HAL_RCCEx_PeriphCLKConfig+0x380>
 800211e:	6b23      	ldr	r3, [r4, #48]	; 0x30
 8002120:	f403 7240 	and.w	r2, r3, #768	; 0x300
 8002124:	f5b2 7f40 	cmp.w	r2, #768	; 0x300
 8002128:	d01d      	beq.n	8002166 <HAL_RCCEx_PeriphCLKConfig+0x3a2>
 800212a:	4a98      	ldr	r2, [pc, #608]	; (800238c <HAL_RCCEx_PeriphCLKConfig+0x5c8>)
 800212c:	6893      	ldr	r3, [r2, #8]
 800212e:	f423 13f8 	bic.w	r3, r3, #2031616	; 0x1f0000
 8002132:	6093      	str	r3, [r2, #8]
 8002134:	4995      	ldr	r1, [pc, #596]	; (800238c <HAL_RCCEx_PeriphCLKConfig+0x5c8>)
 8002136:	6f0b      	ldr	r3, [r1, #112]	; 0x70
 8002138:	6b22      	ldr	r2, [r4, #48]	; 0x30
 800213a:	f3c2 020b 	ubfx	r2, r2, #0, #12
 800213e:	4313      	orrs	r3, r2
 8002140:	670b      	str	r3, [r1, #112]	; 0x70
 8002142:	e68c      	b.n	8001e5e <HAL_RCCEx_PeriphCLKConfig+0x9a>
 8002144:	f000 fa4e 	bl	80025e4 <HAL_GetTick>
 8002148:	4606      	mov	r6, r0
 800214a:	4b90      	ldr	r3, [pc, #576]	; (800238c <HAL_RCCEx_PeriphCLKConfig+0x5c8>)
 800214c:	6f1b      	ldr	r3, [r3, #112]	; 0x70
 800214e:	f013 0f02 	tst.w	r3, #2
 8002152:	d1e4      	bne.n	800211e <HAL_RCCEx_PeriphCLKConfig+0x35a>
 8002154:	f000 fa46 	bl	80025e4 <HAL_GetTick>
 8002158:	1b80      	subs	r0, r0, r6
 800215a:	f241 3388 	movw	r3, #5000	; 0x1388
 800215e:	4298      	cmp	r0, r3
 8002160:	d9f3      	bls.n	800214a <HAL_RCCEx_PeriphCLKConfig+0x386>
 8002162:	2003      	movs	r0, #3
 8002164:	e79a      	b.n	800209c <HAL_RCCEx_PeriphCLKConfig+0x2d8>
 8002166:	4889      	ldr	r0, [pc, #548]	; (800238c <HAL_RCCEx_PeriphCLKConfig+0x5c8>)
 8002168:	6882      	ldr	r2, [r0, #8]
 800216a:	f422 12f8 	bic.w	r2, r2, #2031616	; 0x1f0000
 800216e:	4989      	ldr	r1, [pc, #548]	; (8002394 <HAL_RCCEx_PeriphCLKConfig+0x5d0>)
 8002170:	4019      	ands	r1, r3
 8002172:	430a      	orrs	r2, r1
 8002174:	6082      	str	r2, [r0, #8]
 8002176:	e7dd      	b.n	8002134 <HAL_RCCEx_PeriphCLKConfig+0x370>
 8002178:	2501      	movs	r5, #1
 800217a:	e73c      	b.n	8001ff6 <HAL_RCCEx_PeriphCLKConfig+0x232>
 800217c:	4a83      	ldr	r2, [pc, #524]	; (800238c <HAL_RCCEx_PeriphCLKConfig+0x5c8>)
 800217e:	6813      	ldr	r3, [r2, #0]
 8002180:	f023 6380 	bic.w	r3, r3, #67108864	; 0x4000000
 8002184:	6013      	str	r3, [r2, #0]
 8002186:	f000 fa2d 	bl	80025e4 <HAL_GetTick>
 800218a:	4606      	mov	r6, r0
 800218c:	4b7f      	ldr	r3, [pc, #508]	; (800238c <HAL_RCCEx_PeriphCLKConfig+0x5c8>)
 800218e:	681b      	ldr	r3, [r3, #0]
 8002190:	f013 6f00 	tst.w	r3, #134217728	; 0x8000000
 8002194:	d006      	beq.n	80021a4 <HAL_RCCEx_PeriphCLKConfig+0x3e0>
 8002196:	f000 fa25 	bl	80025e4 <HAL_GetTick>
 800219a:	1b80      	subs	r0, r0, r6
 800219c:	2864      	cmp	r0, #100	; 0x64
 800219e:	d9f5      	bls.n	800218c <HAL_RCCEx_PeriphCLKConfig+0x3c8>
 80021a0:	2003      	movs	r0, #3
 80021a2:	e77b      	b.n	800209c <HAL_RCCEx_PeriphCLKConfig+0x2d8>
 80021a4:	6823      	ldr	r3, [r4, #0]
 80021a6:	f013 0f01 	tst.w	r3, #1
 80021aa:	d013      	beq.n	80021d4 <HAL_RCCEx_PeriphCLKConfig+0x410>
 80021ac:	6b63      	ldr	r3, [r4, #52]	; 0x34
 80021ae:	b98b      	cbnz	r3, 80021d4 <HAL_RCCEx_PeriphCLKConfig+0x410>
 80021b0:	4a76      	ldr	r2, [pc, #472]	; (800238c <HAL_RCCEx_PeriphCLKConfig+0x5c8>)
 80021b2:	f8d2 3084 	ldr.w	r3, [r2, #132]	; 0x84
 80021b6:	f8d2 1084 	ldr.w	r1, [r2, #132]	; 0x84
 80021ba:	6860      	ldr	r0, [r4, #4]
 80021bc:	f403 3340 	and.w	r3, r3, #196608	; 0x30000
 80021c0:	ea43 1380 	orr.w	r3, r3, r0, lsl #6
 80021c4:	f001 6170 	and.w	r1, r1, #251658240	; 0xf000000
 80021c8:	430b      	orrs	r3, r1
 80021ca:	68a1      	ldr	r1, [r4, #8]
 80021cc:	ea43 7301 	orr.w	r3, r3, r1, lsl #28
 80021d0:	f8c2 3084 	str.w	r3, [r2, #132]	; 0x84
 80021d4:	6823      	ldr	r3, [r4, #0]
 80021d6:	f413 2f00 	tst.w	r3, #524288	; 0x80000
 80021da:	d003      	beq.n	80021e4 <HAL_RCCEx_PeriphCLKConfig+0x420>
 80021dc:	6be2      	ldr	r2, [r4, #60]	; 0x3c
 80021de:	f5b2 1f80 	cmp.w	r2, #1048576	; 0x100000
 80021e2:	d006      	beq.n	80021f2 <HAL_RCCEx_PeriphCLKConfig+0x42e>
 80021e4:	f413 1f80 	tst.w	r3, #1048576	; 0x100000
 80021e8:	d01e      	beq.n	8002228 <HAL_RCCEx_PeriphCLKConfig+0x464>
 80021ea:	6c23      	ldr	r3, [r4, #64]	; 0x40
 80021ec:	f5b3 0f80 	cmp.w	r3, #4194304	; 0x400000
 80021f0:	d11a      	bne.n	8002228 <HAL_RCCEx_PeriphCLKConfig+0x464>
 80021f2:	4a66      	ldr	r2, [pc, #408]	; (800238c <HAL_RCCEx_PeriphCLKConfig+0x5c8>)
 80021f4:	f8d2 3084 	ldr.w	r3, [r2, #132]	; 0x84
 80021f8:	f8d2 1084 	ldr.w	r1, [r2, #132]	; 0x84
 80021fc:	6860      	ldr	r0, [r4, #4]
 80021fe:	f403 3340 	and.w	r3, r3, #196608	; 0x30000
 8002202:	ea43 1380 	orr.w	r3, r3, r0, lsl #6
 8002206:	68e0      	ldr	r0, [r4, #12]
 8002208:	ea43 6300 	orr.w	r3, r3, r0, lsl #24
 800220c:	f001 41e0 	and.w	r1, r1, #1879048192	; 0x70000000
 8002210:	430b      	orrs	r3, r1
 8002212:	f8c2 3084 	str.w	r3, [r2, #132]	; 0x84
 8002216:	f8d2 308c 	ldr.w	r3, [r2, #140]	; 0x8c
 800221a:	f023 031f 	bic.w	r3, r3, #31
 800221e:	6a61      	ldr	r1, [r4, #36]	; 0x24
 8002220:	3901      	subs	r1, #1
 8002222:	430b      	orrs	r3, r1
 8002224:	f8c2 308c 	str.w	r3, [r2, #140]	; 0x8c
 8002228:	6823      	ldr	r3, [r4, #0]
 800222a:	f013 7f80 	tst.w	r3, #16777216	; 0x1000000
 800222e:	d011      	beq.n	8002254 <HAL_RCCEx_PeriphCLKConfig+0x490>
 8002230:	4a56      	ldr	r2, [pc, #344]	; (800238c <HAL_RCCEx_PeriphCLKConfig+0x5c8>)
 8002232:	f8d2 0084 	ldr.w	r0, [r2, #132]	; 0x84
 8002236:	f8d2 1084 	ldr.w	r1, [r2, #132]	; 0x84
 800223a:	6866      	ldr	r6, [r4, #4]
 800223c:	6923      	ldr	r3, [r4, #16]
 800223e:	041b      	lsls	r3, r3, #16
 8002240:	ea43 1386 	orr.w	r3, r3, r6, lsl #6
 8002244:	f000 6070 	and.w	r0, r0, #251658240	; 0xf000000
 8002248:	4303      	orrs	r3, r0
 800224a:	f001 41e0 	and.w	r1, r1, #1879048192	; 0x70000000
 800224e:	430b      	orrs	r3, r1
 8002250:	f8c2 3084 	str.w	r3, [r2, #132]	; 0x84
 8002254:	6823      	ldr	r3, [r4, #0]
 8002256:	f013 7f00 	tst.w	r3, #33554432	; 0x2000000
 800225a:	d00d      	beq.n	8002278 <HAL_RCCEx_PeriphCLKConfig+0x4b4>
 800225c:	6862      	ldr	r2, [r4, #4]
 800225e:	6923      	ldr	r3, [r4, #16]
 8002260:	041b      	lsls	r3, r3, #16
 8002262:	ea43 1382 	orr.w	r3, r3, r2, lsl #6
 8002266:	68e2      	ldr	r2, [r4, #12]
 8002268:	ea43 6302 	orr.w	r3, r3, r2, lsl #24
 800226c:	68a2      	ldr	r2, [r4, #8]
 800226e:	ea43 7302 	orr.w	r3, r3, r2, lsl #28
 8002272:	4a46      	ldr	r2, [pc, #280]	; (800238c <HAL_RCCEx_PeriphCLKConfig+0x5c8>)
 8002274:	f8c2 3084 	str.w	r3, [r2, #132]	; 0x84
 8002278:	4a44      	ldr	r2, [pc, #272]	; (800238c <HAL_RCCEx_PeriphCLKConfig+0x5c8>)
 800227a:	6813      	ldr	r3, [r2, #0]
 800227c:	f043 6380 	orr.w	r3, r3, #67108864	; 0x4000000
 8002280:	6013      	str	r3, [r2, #0]
 8002282:	f000 f9af 	bl	80025e4 <HAL_GetTick>
 8002286:	4606      	mov	r6, r0
 8002288:	4b40      	ldr	r3, [pc, #256]	; (800238c <HAL_RCCEx_PeriphCLKConfig+0x5c8>)
 800228a:	681b      	ldr	r3, [r3, #0]
 800228c:	f013 6f00 	tst.w	r3, #134217728	; 0x8000000
 8002290:	f47f af00 	bne.w	8002094 <HAL_RCCEx_PeriphCLKConfig+0x2d0>
 8002294:	f000 f9a6 	bl	80025e4 <HAL_GetTick>
 8002298:	1b80      	subs	r0, r0, r6
 800229a:	2864      	cmp	r0, #100	; 0x64
 800229c:	d9f4      	bls.n	8002288 <HAL_RCCEx_PeriphCLKConfig+0x4c4>
 800229e:	2003      	movs	r0, #3
 80022a0:	e6fc      	b.n	800209c <HAL_RCCEx_PeriphCLKConfig+0x2d8>
 80022a2:	4a3a      	ldr	r2, [pc, #232]	; (800238c <HAL_RCCEx_PeriphCLKConfig+0x5c8>)
 80022a4:	6813      	ldr	r3, [r2, #0]
 80022a6:	f023 5380 	bic.w	r3, r3, #268435456	; 0x10000000
 80022aa:	6013      	str	r3, [r2, #0]
 80022ac:	f000 f99a 	bl	80025e4 <HAL_GetTick>
 80022b0:	4605      	mov	r5, r0
 80022b2:	4b36      	ldr	r3, [pc, #216]	; (800238c <HAL_RCCEx_PeriphCLKConfig+0x5c8>)
 80022b4:	681b      	ldr	r3, [r3, #0]
 80022b6:	f013 5f00 	tst.w	r3, #536870912	; 0x20000000
 80022ba:	d006      	beq.n	80022ca <HAL_RCCEx_PeriphCLKConfig+0x506>
 80022bc:	f000 f992 	bl	80025e4 <HAL_GetTick>
 80022c0:	1b40      	subs	r0, r0, r5
 80022c2:	2864      	cmp	r0, #100	; 0x64
 80022c4:	d9f5      	bls.n	80022b2 <HAL_RCCEx_PeriphCLKConfig+0x4ee>
 80022c6:	2003      	movs	r0, #3
 80022c8:	e6e8      	b.n	800209c <HAL_RCCEx_PeriphCLKConfig+0x2d8>
 80022ca:	6823      	ldr	r3, [r4, #0]
 80022cc:	f413 2f00 	tst.w	r3, #524288	; 0x80000
 80022d0:	d001      	beq.n	80022d6 <HAL_RCCEx_PeriphCLKConfig+0x512>
 80022d2:	6be2      	ldr	r2, [r4, #60]	; 0x3c
 80022d4:	b122      	cbz	r2, 80022e0 <HAL_RCCEx_PeriphCLKConfig+0x51c>
 80022d6:	f413 1f80 	tst.w	r3, #1048576	; 0x100000
 80022da:	d01d      	beq.n	8002318 <HAL_RCCEx_PeriphCLKConfig+0x554>
 80022dc:	6c23      	ldr	r3, [r4, #64]	; 0x40
 80022de:	b9db      	cbnz	r3, 8002318 <HAL_RCCEx_PeriphCLKConfig+0x554>
 80022e0:	4a2a      	ldr	r2, [pc, #168]	; (800238c <HAL_RCCEx_PeriphCLKConfig+0x5c8>)
 80022e2:	f8d2 3088 	ldr.w	r3, [r2, #136]	; 0x88
 80022e6:	f8d2 1088 	ldr.w	r1, [r2, #136]	; 0x88
 80022ea:	6960      	ldr	r0, [r4, #20]
 80022ec:	f403 3340 	and.w	r3, r3, #196608	; 0x30000
 80022f0:	ea43 1380 	orr.w	r3, r3, r0, lsl #6
 80022f4:	69a0      	ldr	r0, [r4, #24]
 80022f6:	ea43 6300 	orr.w	r3, r3, r0, lsl #24
 80022fa:	f001 41e0 	and.w	r1, r1, #1879048192	; 0x70000000
 80022fe:	430b      	orrs	r3, r1
 8002300:	f8c2 3088 	str.w	r3, [r2, #136]	; 0x88
 8002304:	f8d2 308c 	ldr.w	r3, [r2, #140]	; 0x8c
 8002308:	f423 53f8 	bic.w	r3, r3, #7936	; 0x1f00
 800230c:	6aa1      	ldr	r1, [r4, #40]	; 0x28
 800230e:	3901      	subs	r1, #1
 8002310:	ea43 2301 	orr.w	r3, r3, r1, lsl #8
 8002314:	f8c2 308c 	str.w	r3, [r2, #140]	; 0x8c
 8002318:	6823      	ldr	r3, [r4, #0]
 800231a:	f413 1f00 	tst.w	r3, #2097152	; 0x200000
 800231e:	d003      	beq.n	8002328 <HAL_RCCEx_PeriphCLKConfig+0x564>
 8002320:	6fe3      	ldr	r3, [r4, #124]	; 0x7c
 8002322:	f1b3 6f00 	cmp.w	r3, #134217728	; 0x8000000
 8002326:	d037      	beq.n	8002398 <HAL_RCCEx_PeriphCLKConfig+0x5d4>
 8002328:	6823      	ldr	r3, [r4, #0]
 800232a:	f013 0f08 	tst.w	r3, #8
 800232e:	d019      	beq.n	8002364 <HAL_RCCEx_PeriphCLKConfig+0x5a0>
 8002330:	4a16      	ldr	r2, [pc, #88]	; (800238c <HAL_RCCEx_PeriphCLKConfig+0x5c8>)
 8002332:	f8d2 1088 	ldr.w	r1, [r2, #136]	; 0x88
 8002336:	f8d2 3088 	ldr.w	r3, [r2, #136]	; 0x88
 800233a:	6960      	ldr	r0, [r4, #20]
 800233c:	f403 3340 	and.w	r3, r3, #196608	; 0x30000
 8002340:	ea43 1380 	orr.w	r3, r3, r0, lsl #6
 8002344:	f001 6170 	and.w	r1, r1, #251658240	; 0xf000000
 8002348:	430b      	orrs	r3, r1
 800234a:	69e1      	ldr	r1, [r4, #28]
 800234c:	ea43 7301 	orr.w	r3, r3, r1, lsl #28
 8002350:	f8c2 3088 	str.w	r3, [r2, #136]	; 0x88
 8002354:	f8d2 308c 	ldr.w	r3, [r2, #140]	; 0x8c
 8002358:	f423 3340 	bic.w	r3, r3, #196608	; 0x30000
 800235c:	6ae1      	ldr	r1, [r4, #44]	; 0x2c
 800235e:	430b      	orrs	r3, r1
 8002360:	f8c2 308c 	str.w	r3, [r2, #140]	; 0x8c
 8002364:	4a09      	ldr	r2, [pc, #36]	; (800238c <HAL_RCCEx_PeriphCLKConfig+0x5c8>)
 8002366:	6813      	ldr	r3, [r2, #0]
 8002368:	f043 5380 	orr.w	r3, r3, #268435456	; 0x10000000
 800236c:	6013      	str	r3, [r2, #0]
 800236e:	f000 f939 	bl	80025e4 <HAL_GetTick>
 8002372:	4604      	mov	r4, r0
 8002374:	4b05      	ldr	r3, [pc, #20]	; (800238c <HAL_RCCEx_PeriphCLKConfig+0x5c8>)
 8002376:	681b      	ldr	r3, [r3, #0]
 8002378:	f013 5f00 	tst.w	r3, #536870912	; 0x20000000
 800237c:	d11f      	bne.n	80023be <HAL_RCCEx_PeriphCLKConfig+0x5fa>
 800237e:	f000 f931 	bl	80025e4 <HAL_GetTick>
 8002382:	1b00      	subs	r0, r0, r4
 8002384:	2864      	cmp	r0, #100	; 0x64
 8002386:	d9f5      	bls.n	8002374 <HAL_RCCEx_PeriphCLKConfig+0x5b0>
 8002388:	2003      	movs	r0, #3
 800238a:	e687      	b.n	800209c <HAL_RCCEx_PeriphCLKConfig+0x2d8>
 800238c:	40023800 	andmi	r3, r2, r0, lsl #16
 8002390:	40007000 	andmi	r7, r0, r0
 8002394:	0ffffcff 	svceq	0x00fffcff
 8002398:	4a0a      	ldr	r2, [pc, #40]	; (80023c4 <HAL_RCCEx_PeriphCLKConfig+0x600>)
 800239a:	f8d2 0088 	ldr.w	r0, [r2, #136]	; 0x88
 800239e:	f8d2 1088 	ldr.w	r1, [r2, #136]	; 0x88
 80023a2:	6965      	ldr	r5, [r4, #20]
 80023a4:	6a23      	ldr	r3, [r4, #32]
 80023a6:	041b      	lsls	r3, r3, #16
 80023a8:	ea43 1385 	orr.w	r3, r3, r5, lsl #6
 80023ac:	f000 6070 	and.w	r0, r0, #251658240	; 0xf000000
 80023b0:	4303      	orrs	r3, r0
 80023b2:	f001 41e0 	and.w	r1, r1, #1879048192	; 0x70000000
 80023b6:	430b      	orrs	r3, r1
 80023b8:	f8c2 3088 	str.w	r3, [r2, #136]	; 0x88
 80023bc:	e7b4      	b.n	8002328 <HAL_RCCEx_PeriphCLKConfig+0x564>
 80023be:	2000      	movs	r0, #0
 80023c0:	e66c      	b.n	800209c <HAL_RCCEx_PeriphCLKConfig+0x2d8>
 80023c2:	bf00      	nop
 80023c4:	40023800 	andmi	r3, r2, r0, lsl #16

080023c8 <HAL_GPIO_Init>:
 80023c8:	2300      	movs	r3, #0
 80023ca:	2b0f      	cmp	r3, #15
 80023cc:	f200 80e2 	bhi.w	8002594 <HAL_GPIO_Init+0x1cc>
 80023d0:	b4f0      	push	{r4, r5, r6, r7}
 80023d2:	b082      	sub	sp, #8
 80023d4:	e039      	b.n	800244a <HAL_GPIO_Init+0x82>
 80023d6:	2209      	movs	r2, #9
 80023d8:	e000      	b.n	80023dc <HAL_GPIO_Init+0x14>
 80023da:	2200      	movs	r2, #0
 80023dc:	40b2      	lsls	r2, r6
 80023de:	433a      	orrs	r2, r7
 80023e0:	3402      	adds	r4, #2
 80023e2:	4e6d      	ldr	r6, [pc, #436]	; (8002598 <HAL_GPIO_Init+0x1d0>)
 80023e4:	f846 2024 	str.w	r2, [r6, r4, lsl #2]
 80023e8:	4a6c      	ldr	r2, [pc, #432]	; (800259c <HAL_GPIO_Init+0x1d4>)
 80023ea:	6814      	ldr	r4, [r2, #0]
 80023ec:	43ea      	mvns	r2, r5
 80023ee:	ea02 0604 	and.w	r6, r2, r4
 80023f2:	684f      	ldr	r7, [r1, #4]
 80023f4:	f417 3f80 	tst.w	r7, #65536	; 0x10000
 80023f8:	d001      	beq.n	80023fe <HAL_GPIO_Init+0x36>
 80023fa:	ea45 0604 	orr.w	r6, r5, r4
 80023fe:	4c67      	ldr	r4, [pc, #412]	; (800259c <HAL_GPIO_Init+0x1d4>)
 8002400:	6026      	str	r6, [r4, #0]
 8002402:	6864      	ldr	r4, [r4, #4]
 8002404:	ea02 0604 	and.w	r6, r2, r4
 8002408:	684f      	ldr	r7, [r1, #4]
 800240a:	f417 3f00 	tst.w	r7, #131072	; 0x20000
 800240e:	d001      	beq.n	8002414 <HAL_GPIO_Init+0x4c>
 8002410:	ea45 0604 	orr.w	r6, r5, r4
 8002414:	4c61      	ldr	r4, [pc, #388]	; (800259c <HAL_GPIO_Init+0x1d4>)
 8002416:	6066      	str	r6, [r4, #4]
 8002418:	68a4      	ldr	r4, [r4, #8]
 800241a:	ea02 0604 	and.w	r6, r2, r4
 800241e:	684f      	ldr	r7, [r1, #4]
 8002420:	f417 1f80 	tst.w	r7, #1048576	; 0x100000
 8002424:	d001      	beq.n	800242a <HAL_GPIO_Init+0x62>
 8002426:	ea45 0604 	orr.w	r6, r5, r4
 800242a:	4c5c      	ldr	r4, [pc, #368]	; (800259c <HAL_GPIO_Init+0x1d4>)
 800242c:	60a6      	str	r6, [r4, #8]
 800242e:	68e4      	ldr	r4, [r4, #12]
 8002430:	4022      	ands	r2, r4
 8002432:	684e      	ldr	r6, [r1, #4]
 8002434:	f416 1f00 	tst.w	r6, #2097152	; 0x200000
 8002438:	d001      	beq.n	800243e <HAL_GPIO_Init+0x76>
 800243a:	ea45 0204 	orr.w	r2, r5, r4
 800243e:	4c57      	ldr	r4, [pc, #348]	; (800259c <HAL_GPIO_Init+0x1d4>)
 8002440:	60e2      	str	r2, [r4, #12]
 8002442:	3301      	adds	r3, #1
 8002444:	2b0f      	cmp	r3, #15
 8002446:	f200 80a2 	bhi.w	800258e <HAL_GPIO_Init+0x1c6>
 800244a:	2201      	movs	r2, #1
 800244c:	409a      	lsls	r2, r3
 800244e:	680c      	ldr	r4, [r1, #0]
 8002450:	ea04 0502 	and.w	r5, r4, r2
 8002454:	42aa      	cmp	r2, r5
 8002456:	d1f4      	bne.n	8002442 <HAL_GPIO_Init+0x7a>
 8002458:	684c      	ldr	r4, [r1, #4]
 800245a:	2c12      	cmp	r4, #18
 800245c:	bf18      	it	ne
 800245e:	2c02      	cmpne	r4, #2
 8002460:	d110      	bne.n	8002484 <HAL_GPIO_Init+0xbc>
 8002462:	08de      	lsrs	r6, r3, #3
 8002464:	3608      	adds	r6, #8
 8002466:	f850 c026 	ldr.w	ip, [r0, r6, lsl #2]
 800246a:	f003 0407 	and.w	r4, r3, #7
 800246e:	00a7      	lsls	r7, r4, #2
 8002470:	240f      	movs	r4, #15
 8002472:	40bc      	lsls	r4, r7
 8002474:	ea2c 0c04 	bic.w	ip, ip, r4
 8002478:	690c      	ldr	r4, [r1, #16]
 800247a:	40bc      	lsls	r4, r7
 800247c:	ea44 040c 	orr.w	r4, r4, ip
 8002480:	f840 4026 	str.w	r4, [r0, r6, lsl #2]
 8002484:	6804      	ldr	r4, [r0, #0]
 8002486:	005f      	lsls	r7, r3, #1
 8002488:	2603      	movs	r6, #3
 800248a:	40be      	lsls	r6, r7
 800248c:	43f6      	mvns	r6, r6
 800248e:	ea06 0c04 	and.w	ip, r6, r4
 8002492:	684c      	ldr	r4, [r1, #4]
 8002494:	f004 0403 	and.w	r4, r4, #3
 8002498:	40bc      	lsls	r4, r7
 800249a:	ea44 040c 	orr.w	r4, r4, ip
 800249e:	6004      	str	r4, [r0, #0]
 80024a0:	684c      	ldr	r4, [r1, #4]
 80024a2:	f104 3cff 	add.w	ip, r4, #4294967295	; 0xffffffff
 80024a6:	2c11      	cmp	r4, #17
 80024a8:	bf18      	it	ne
 80024aa:	f1bc 0f01 	cmpne.w	ip, #1
 80024ae:	d901      	bls.n	80024b4 <HAL_GPIO_Init+0xec>
 80024b0:	2c12      	cmp	r4, #18
 80024b2:	d111      	bne.n	80024d8 <HAL_GPIO_Init+0x110>
 80024b4:	6884      	ldr	r4, [r0, #8]
 80024b6:	ea06 0c04 	and.w	ip, r6, r4
 80024ba:	68cc      	ldr	r4, [r1, #12]
 80024bc:	40bc      	lsls	r4, r7
 80024be:	ea44 040c 	orr.w	r4, r4, ip
 80024c2:	6084      	str	r4, [r0, #8]
 80024c4:	6844      	ldr	r4, [r0, #4]
 80024c6:	ea24 0c02 	bic.w	ip, r4, r2
 80024ca:	684c      	ldr	r4, [r1, #4]
 80024cc:	f3c4 1200 	ubfx	r2, r4, #4, #1
 80024d0:	409a      	lsls	r2, r3
 80024d2:	ea42 020c 	orr.w	r2, r2, ip
 80024d6:	6042      	str	r2, [r0, #4]
 80024d8:	68c2      	ldr	r2, [r0, #12]
 80024da:	4016      	ands	r6, r2
 80024dc:	688a      	ldr	r2, [r1, #8]
 80024de:	40ba      	lsls	r2, r7
 80024e0:	4332      	orrs	r2, r6
 80024e2:	60c2      	str	r2, [r0, #12]
 80024e4:	684a      	ldr	r2, [r1, #4]
 80024e6:	f012 5f80 	tst.w	r2, #268435456	; 0x10000000
 80024ea:	d0aa      	beq.n	8002442 <HAL_GPIO_Init+0x7a>
 80024ec:	4a2c      	ldr	r2, [pc, #176]	; (80025a0 <HAL_GPIO_Init+0x1d8>)
 80024ee:	6c54      	ldr	r4, [r2, #68]	; 0x44
 80024f0:	f444 4480 	orr.w	r4, r4, #16384	; 0x4000
 80024f4:	6454      	str	r4, [r2, #68]	; 0x44
 80024f6:	6c52      	ldr	r2, [r2, #68]	; 0x44
 80024f8:	f402 4280 	and.w	r2, r2, #16384	; 0x4000
 80024fc:	9201      	str	r2, [sp, #4]
 80024fe:	9a01      	ldr	r2, [sp, #4]
 8002500:	089c      	lsrs	r4, r3, #2
 8002502:	1ca6      	adds	r6, r4, #2
 8002504:	4a24      	ldr	r2, [pc, #144]	; (8002598 <HAL_GPIO_Init+0x1d0>)
 8002506:	f852 7026 	ldr.w	r7, [r2, r6, lsl #2]
 800250a:	f003 0203 	and.w	r2, r3, #3
 800250e:	0096      	lsls	r6, r2, #2
 8002510:	220f      	movs	r2, #15
 8002512:	40b2      	lsls	r2, r6
 8002514:	ea27 0702 	bic.w	r7, r7, r2
 8002518:	4a22      	ldr	r2, [pc, #136]	; (80025a4 <HAL_GPIO_Init+0x1dc>)
 800251a:	4290      	cmp	r0, r2
 800251c:	f43f af5d 	beq.w	80023da <HAL_GPIO_Init+0x12>
 8002520:	f502 6280 	add.w	r2, r2, #1024	; 0x400
 8002524:	4290      	cmp	r0, r2
 8002526:	d022      	beq.n	800256e <HAL_GPIO_Init+0x1a6>
 8002528:	f502 6280 	add.w	r2, r2, #1024	; 0x400
 800252c:	4290      	cmp	r0, r2
 800252e:	d020      	beq.n	8002572 <HAL_GPIO_Init+0x1aa>
 8002530:	f502 6280 	add.w	r2, r2, #1024	; 0x400
 8002534:	4290      	cmp	r0, r2
 8002536:	d01e      	beq.n	8002576 <HAL_GPIO_Init+0x1ae>
 8002538:	f502 6280 	add.w	r2, r2, #1024	; 0x400
 800253c:	4290      	cmp	r0, r2
 800253e:	d01c      	beq.n	800257a <HAL_GPIO_Init+0x1b2>
 8002540:	f502 6280 	add.w	r2, r2, #1024	; 0x400
 8002544:	4290      	cmp	r0, r2
 8002546:	d01a      	beq.n	800257e <HAL_GPIO_Init+0x1b6>
 8002548:	f502 6280 	add.w	r2, r2, #1024	; 0x400
 800254c:	4290      	cmp	r0, r2
 800254e:	d018      	beq.n	8002582 <HAL_GPIO_Init+0x1ba>
 8002550:	f502 6280 	add.w	r2, r2, #1024	; 0x400
 8002554:	4290      	cmp	r0, r2
 8002556:	d016      	beq.n	8002586 <HAL_GPIO_Init+0x1be>
 8002558:	f502 6280 	add.w	r2, r2, #1024	; 0x400
 800255c:	4290      	cmp	r0, r2
 800255e:	d014      	beq.n	800258a <HAL_GPIO_Init+0x1c2>
 8002560:	f502 6280 	add.w	r2, r2, #1024	; 0x400
 8002564:	4290      	cmp	r0, r2
 8002566:	f43f af36 	beq.w	80023d6 <HAL_GPIO_Init+0xe>
 800256a:	220a      	movs	r2, #10
 800256c:	e736      	b.n	80023dc <HAL_GPIO_Init+0x14>
 800256e:	2201      	movs	r2, #1
 8002570:	e734      	b.n	80023dc <HAL_GPIO_Init+0x14>
 8002572:	2202      	movs	r2, #2
 8002574:	e732      	b.n	80023dc <HAL_GPIO_Init+0x14>
 8002576:	2203      	movs	r2, #3
 8002578:	e730      	b.n	80023dc <HAL_GPIO_Init+0x14>
 800257a:	2204      	movs	r2, #4
 800257c:	e72e      	b.n	80023dc <HAL_GPIO_Init+0x14>
 800257e:	2205      	movs	r2, #5
 8002580:	e72c      	b.n	80023dc <HAL_GPIO_Init+0x14>
 8002582:	2206      	movs	r2, #6
 8002584:	e72a      	b.n	80023dc <HAL_GPIO_Init+0x14>
 8002586:	2207      	movs	r2, #7
 8002588:	e728      	b.n	80023dc <HAL_GPIO_Init+0x14>
 800258a:	2208      	movs	r2, #8
 800258c:	e726      	b.n	80023dc <HAL_GPIO_Init+0x14>
 800258e:	b002      	add	sp, #8
 8002590:	bcf0      	pop	{r4, r5, r6, r7}
 8002592:	4770      	bx	lr
 8002594:	4770      	bx	lr
 8002596:	bf00      	nop
 8002598:	40013800 	andmi	r3, r1, r0, lsl #16
 800259c:	40013c00 	andmi	r3, r1, r0, lsl #24
 80025a0:	40023800 	andmi	r3, r2, r0, lsl #16
 80025a4:	40020000 	andmi	r0, r2, r0

080025a8 <HAL_GPIO_WritePin>:
 80025a8:	b10a      	cbz	r2, 80025ae <HAL_GPIO_WritePin+0x6>
 80025aa:	6181      	str	r1, [r0, #24]
 80025ac:	4770      	bx	lr
 80025ae:	0409      	lsls	r1, r1, #16
 80025b0:	6181      	str	r1, [r0, #24]
 80025b2:	4770      	bx	lr

080025b4 <HAL_Init>:
 80025b4:	b508      	push	{r3, lr}
 80025b6:	2003      	movs	r0, #3
 80025b8:	f7fe fc3e 	bl	8000e38 <HAL_NVIC_SetPriorityGrouping>
 80025bc:	2000      	movs	r0, #0
 80025be:	f7fe fbff 	bl	8000dc0 <HAL_InitTick>
 80025c2:	f7fe fba7 	bl	8000d14 <HAL_MspInit>
 80025c6:	2000      	movs	r0, #0
 80025c8:	bd08      	pop	{r3, pc}
	...

080025cc <HAL_IncTick>:
 80025cc:	4a03      	ldr	r2, [pc, #12]	; (80025dc <HAL_IncTick+0x10>)
 80025ce:	6811      	ldr	r1, [r2, #0]
 80025d0:	4b03      	ldr	r3, [pc, #12]	; (80025e0 <HAL_IncTick+0x14>)
 80025d2:	781b      	ldrb	r3, [r3, #0]
 80025d4:	440b      	add	r3, r1
 80025d6:	6013      	str	r3, [r2, #0]
 80025d8:	4770      	bx	lr
 80025da:	bf00      	nop
 80025dc:	200026a0 	andcs	r2, r0, r0, lsr #13
 80025e0:	20000000 	andcs	r0, r0, r0

080025e4 <HAL_GetTick>:
 80025e4:	4b01      	ldr	r3, [pc, #4]	; (80025ec <HAL_GetTick+0x8>)
 80025e6:	6818      	ldr	r0, [r3, #0]
 80025e8:	4770      	bx	lr
 80025ea:	bf00      	nop
 80025ec:	200026a0 	andcs	r2, r0, r0, lsr #13

080025f0 <SystemInit>:
 80025f0:	b410      	push	{r4}
 80025f2:	4a0f      	ldr	r2, [pc, #60]	; (8002630 <SystemInit+0x40>)
 80025f4:	f8d2 3088 	ldr.w	r3, [r2, #136]	; 0x88
 80025f8:	f443 0370 	orr.w	r3, r3, #15728640	; 0xf00000
 80025fc:	f8c2 3088 	str.w	r3, [r2, #136]	; 0x88
 8002600:	4b0c      	ldr	r3, [pc, #48]	; (8002634 <SystemInit+0x44>)
 8002602:	6819      	ldr	r1, [r3, #0]
 8002604:	f041 0101 	orr.w	r1, r1, #1
 8002608:	6019      	str	r1, [r3, #0]
 800260a:	2000      	movs	r0, #0
 800260c:	6098      	str	r0, [r3, #8]
 800260e:	681c      	ldr	r4, [r3, #0]
 8002610:	4909      	ldr	r1, [pc, #36]	; (8002638 <SystemInit+0x48>)
 8002612:	4021      	ands	r1, r4
 8002614:	6019      	str	r1, [r3, #0]
 8002616:	4909      	ldr	r1, [pc, #36]	; (800263c <SystemInit+0x4c>)
 8002618:	6059      	str	r1, [r3, #4]
 800261a:	6819      	ldr	r1, [r3, #0]
 800261c:	f421 2180 	bic.w	r1, r1, #262144	; 0x40000
 8002620:	6019      	str	r1, [r3, #0]
 8002622:	60d8      	str	r0, [r3, #12]
 8002624:	f04f 6300 	mov.w	r3, #134217728	; 0x8000000
 8002628:	6093      	str	r3, [r2, #8]
 800262a:	f85d 4b04 	ldr.w	r4, [sp], #4
 800262e:	4770      	bx	lr
 8002630:	e000ed00 	and	lr, r0, r0, lsl #26
 8002634:	40023800 	andmi	r3, r2, r0, lsl #16
 8002638:	fef6ffff 	mrc2	15, 7, pc, cr6, cr15, {7}
 800263c:	24003010 	strcs	r3, [r0], #-16

08002640 <vListInitialise>:
 8002640:	f100 0308 	add.w	r3, r0, #8
 8002644:	6043      	str	r3, [r0, #4]
 8002646:	f04f 32ff 	mov.w	r2, #4294967295	; 0xffffffff
 800264a:	6082      	str	r2, [r0, #8]
 800264c:	60c3      	str	r3, [r0, #12]
 800264e:	6103      	str	r3, [r0, #16]
 8002650:	2300      	movs	r3, #0
 8002652:	6003      	str	r3, [r0, #0]
 8002654:	4770      	bx	lr

08002656 <vListInitialiseItem>:
 8002656:	2300      	movs	r3, #0
 8002658:	6103      	str	r3, [r0, #16]
 800265a:	4770      	bx	lr

0800265c <vListInsertEnd>:
 800265c:	6843      	ldr	r3, [r0, #4]
 800265e:	604b      	str	r3, [r1, #4]
 8002660:	689a      	ldr	r2, [r3, #8]
 8002662:	608a      	str	r2, [r1, #8]
 8002664:	6051      	str	r1, [r2, #4]
 8002666:	6099      	str	r1, [r3, #8]
 8002668:	6108      	str	r0, [r1, #16]
 800266a:	6803      	ldr	r3, [r0, #0]
 800266c:	3301      	adds	r3, #1
 800266e:	6003      	str	r3, [r0, #0]
 8002670:	4770      	bx	lr

08002672 <vListInsert>:
 8002672:	b430      	push	{r4, r5}
 8002674:	680d      	ldr	r5, [r1, #0]
 8002676:	f1b5 3fff 	cmp.w	r5, #4294967295	; 0xffffffff
 800267a:	d002      	beq.n	8002682 <vListInsert+0x10>
 800267c:	f100 0208 	add.w	r2, r0, #8
 8002680:	e002      	b.n	8002688 <vListInsert+0x16>
 8002682:	6902      	ldr	r2, [r0, #16]
 8002684:	e004      	b.n	8002690 <vListInsert+0x1e>
 8002686:	461a      	mov	r2, r3
 8002688:	6853      	ldr	r3, [r2, #4]
 800268a:	681c      	ldr	r4, [r3, #0]
 800268c:	42ac      	cmp	r4, r5
 800268e:	d9fa      	bls.n	8002686 <vListInsert+0x14>
 8002690:	6853      	ldr	r3, [r2, #4]
 8002692:	604b      	str	r3, [r1, #4]
 8002694:	6099      	str	r1, [r3, #8]
 8002696:	608a      	str	r2, [r1, #8]
 8002698:	6051      	str	r1, [r2, #4]
 800269a:	6108      	str	r0, [r1, #16]
 800269c:	6803      	ldr	r3, [r0, #0]
 800269e:	3301      	adds	r3, #1
 80026a0:	6003      	str	r3, [r0, #0]
 80026a2:	bc30      	pop	{r4, r5}
 80026a4:	4770      	bx	lr

080026a6 <uxListRemove>:
 80026a6:	6903      	ldr	r3, [r0, #16]
 80026a8:	6841      	ldr	r1, [r0, #4]
 80026aa:	6882      	ldr	r2, [r0, #8]
 80026ac:	608a      	str	r2, [r1, #8]
 80026ae:	6841      	ldr	r1, [r0, #4]
 80026b0:	6051      	str	r1, [r2, #4]
 80026b2:	685a      	ldr	r2, [r3, #4]
 80026b4:	4282      	cmp	r2, r0
 80026b6:	d006      	beq.n	80026c6 <uxListRemove+0x20>
 80026b8:	2200      	movs	r2, #0
 80026ba:	6102      	str	r2, [r0, #16]
 80026bc:	681a      	ldr	r2, [r3, #0]
 80026be:	3a01      	subs	r2, #1
 80026c0:	601a      	str	r2, [r3, #0]
 80026c2:	6818      	ldr	r0, [r3, #0]
 80026c4:	4770      	bx	lr
 80026c6:	6882      	ldr	r2, [r0, #8]
 80026c8:	605a      	str	r2, [r3, #4]
 80026ca:	e7f5      	b.n	80026b8 <uxListRemove+0x12>

080026cc <prvResetNextTaskUnblockTime>:
 80026cc:	4b08      	ldr	r3, [pc, #32]	; (80026f0 <prvResetNextTaskUnblockTime+0x24>)
 80026ce:	681b      	ldr	r3, [r3, #0]
 80026d0:	681b      	ldr	r3, [r3, #0]
 80026d2:	b923      	cbnz	r3, 80026de <prvResetNextTaskUnblockTime+0x12>
 80026d4:	4b07      	ldr	r3, [pc, #28]	; (80026f4 <prvResetNextTaskUnblockTime+0x28>)
 80026d6:	f04f 32ff 	mov.w	r2, #4294967295	; 0xffffffff
 80026da:	601a      	str	r2, [r3, #0]
 80026dc:	4770      	bx	lr
 80026de:	4b04      	ldr	r3, [pc, #16]	; (80026f0 <prvResetNextTaskUnblockTime+0x24>)
 80026e0:	681b      	ldr	r3, [r3, #0]
 80026e2:	68db      	ldr	r3, [r3, #12]
 80026e4:	68db      	ldr	r3, [r3, #12]
 80026e6:	685a      	ldr	r2, [r3, #4]
 80026e8:	4b02      	ldr	r3, [pc, #8]	; (80026f4 <prvResetNextTaskUnblockTime+0x28>)
 80026ea:	601a      	str	r2, [r3, #0]
 80026ec:	4770      	bx	lr
 80026ee:	bf00      	nop
 80026f0:	20002254 	andcs	r2, r0, r4, asr r2
 80026f4:	20002328 	andcs	r2, r0, r8, lsr #6

080026f8 <prvInitialiseNewTask>:
 80026f8:	e92d 47f0 	stmdb	sp!, {r4, r5, r6, r7, r8, r9, sl, lr}
 80026fc:	4680      	mov	r8, r0
 80026fe:	4699      	mov	r9, r3
 8002700:	9d08      	ldr	r5, [sp, #32]
 8002702:	9f09      	ldr	r7, [sp, #36]	; 0x24
 8002704:	9c0a      	ldr	r4, [sp, #40]	; 0x28
 8002706:	6b26      	ldr	r6, [r4, #48]	; 0x30
 8002708:	f06f 4340 	mvn.w	r3, #3221225472	; 0xc0000000
 800270c:	4413      	add	r3, r2
 800270e:	eb06 0683 	add.w	r6, r6, r3, lsl #2
 8002712:	f026 0607 	bic.w	r6, r6, #7
 8002716:	2300      	movs	r3, #0
 8002718:	2b0f      	cmp	r3, #15
 800271a:	d806      	bhi.n	800272a <prvInitialiseNewTask+0x32>
 800271c:	5cca      	ldrb	r2, [r1, r3]
 800271e:	18e0      	adds	r0, r4, r3
 8002720:	f880 2034 	strb.w	r2, [r0, #52]	; 0x34
 8002724:	b10a      	cbz	r2, 800272a <prvInitialiseNewTask+0x32>
 8002726:	3301      	adds	r3, #1
 8002728:	e7f6      	b.n	8002718 <prvInitialiseNewTask+0x20>
 800272a:	2300      	movs	r3, #0
 800272c:	f884 3043 	strb.w	r3, [r4, #67]	; 0x43
 8002730:	2d06      	cmp	r5, #6
 8002732:	d900      	bls.n	8002736 <prvInitialiseNewTask+0x3e>
 8002734:	2506      	movs	r5, #6
 8002736:	62e5      	str	r5, [r4, #44]	; 0x2c
 8002738:	6465      	str	r5, [r4, #68]	; 0x44
 800273a:	f04f 0a00 	mov.w	sl, #0
 800273e:	f8c4 a048 	str.w	sl, [r4, #72]	; 0x48
 8002742:	1d20      	adds	r0, r4, #4
 8002744:	f7ff ff87 	bl	8002656 <vListInitialiseItem>
 8002748:	f104 0018 	add.w	r0, r4, #24
 800274c:	f7ff ff83 	bl	8002656 <vListInitialiseItem>
 8002750:	6124      	str	r4, [r4, #16]
 8002752:	f1c5 0507 	rsb	r5, r5, #7
 8002756:	61a5      	str	r5, [r4, #24]
 8002758:	6264      	str	r4, [r4, #36]	; 0x24
 800275a:	f8c4 a04c 	str.w	sl, [r4, #76]	; 0x4c
 800275e:	f884 a050 	strb.w	sl, [r4, #80]	; 0x50
 8002762:	464a      	mov	r2, r9
 8002764:	4641      	mov	r1, r8
 8002766:	4630      	mov	r0, r6
 8002768:	f000 fb8c 	bl	8002e84 <pxPortInitialiseStack>
 800276c:	6020      	str	r0, [r4, #0]
 800276e:	b107      	cbz	r7, 8002772 <prvInitialiseNewTask+0x7a>
 8002770:	603c      	str	r4, [r7, #0]
 8002772:	e8bd 87f0 	ldmia.w	sp!, {r4, r5, r6, r7, r8, r9, sl, pc}
	...

08002778 <prvInitialiseTaskLists>:
 8002778:	b538      	push	{r3, r4, r5, lr}
 800277a:	2400      	movs	r4, #0
 800277c:	2c06      	cmp	r4, #6
 800277e:	d808      	bhi.n	8002792 <prvInitialiseTaskLists+0x1a>
 8002780:	eb04 0284 	add.w	r2, r4, r4, lsl #2
 8002784:	0093      	lsls	r3, r2, #2
 8002786:	480e      	ldr	r0, [pc, #56]	; (80027c0 <prvInitialiseTaskLists+0x48>)
 8002788:	4418      	add	r0, r3
 800278a:	f7ff ff59 	bl	8002640 <vListInitialise>
 800278e:	3401      	adds	r4, #1
 8002790:	e7f4      	b.n	800277c <prvInitialiseTaskLists+0x4>
 8002792:	4d0c      	ldr	r5, [pc, #48]	; (80027c4 <prvInitialiseTaskLists+0x4c>)
 8002794:	4628      	mov	r0, r5
 8002796:	f7ff ff53 	bl	8002640 <vListInitialise>
 800279a:	4c0b      	ldr	r4, [pc, #44]	; (80027c8 <prvInitialiseTaskLists+0x50>)
 800279c:	4620      	mov	r0, r4
 800279e:	f7ff ff4f 	bl	8002640 <vListInitialise>
 80027a2:	480a      	ldr	r0, [pc, #40]	; (80027cc <prvInitialiseTaskLists+0x54>)
 80027a4:	f7ff ff4c 	bl	8002640 <vListInitialise>
 80027a8:	4809      	ldr	r0, [pc, #36]	; (80027d0 <prvInitialiseTaskLists+0x58>)
 80027aa:	f7ff ff49 	bl	8002640 <vListInitialise>
 80027ae:	4809      	ldr	r0, [pc, #36]	; (80027d4 <prvInitialiseTaskLists+0x5c>)
 80027b0:	f7ff ff46 	bl	8002640 <vListInitialise>
 80027b4:	4b08      	ldr	r3, [pc, #32]	; (80027d8 <prvInitialiseTaskLists+0x60>)
 80027b6:	601d      	str	r5, [r3, #0]
 80027b8:	4b08      	ldr	r3, [pc, #32]	; (80027dc <prvInitialiseTaskLists+0x64>)
 80027ba:	601c      	str	r4, [r3, #0]
 80027bc:	bd38      	pop	{r3, r4, r5, pc}
 80027be:	bf00      	nop
 80027c0:	2000225c 	andcs	r2, r0, ip, asr r2
 80027c4:	20002300 	andcs	r2, r0, r0, lsl #6
 80027c8:	20002314 	andcs	r2, r0, r4, lsl r3
 80027cc:	20002330 	andcs	r2, r0, r0, lsr r3
 80027d0:	2000235c 	andcs	r2, r0, ip, asr r3
 80027d4:	20002348 	andcs	r2, r0, r8, asr #6
 80027d8:	20002254 	andcs	r2, r0, r4, asr r2
 80027dc:	20002258 	andcs	r2, r0, r8, asr r2

080027e0 <prvAddNewTaskToReadyList>:
 80027e0:	b510      	push	{r4, lr}
 80027e2:	4604      	mov	r4, r0
 80027e4:	f000 fb76 	bl	8002ed4 <vPortEnterCritical>
 80027e8:	4a20      	ldr	r2, [pc, #128]	; (800286c <prvAddNewTaskToReadyList+0x8c>)
 80027ea:	6813      	ldr	r3, [r2, #0]
 80027ec:	3301      	adds	r3, #1
 80027ee:	6013      	str	r3, [r2, #0]
 80027f0:	4b1f      	ldr	r3, [pc, #124]	; (8002870 <prvAddNewTaskToReadyList+0x90>)
 80027f2:	681b      	ldr	r3, [r3, #0]
 80027f4:	b15b      	cbz	r3, 800280e <prvAddNewTaskToReadyList+0x2e>
 80027f6:	4b1f      	ldr	r3, [pc, #124]	; (8002874 <prvAddNewTaskToReadyList+0x94>)
 80027f8:	681b      	ldr	r3, [r3, #0]
 80027fa:	b96b      	cbnz	r3, 8002818 <prvAddNewTaskToReadyList+0x38>
 80027fc:	4b1c      	ldr	r3, [pc, #112]	; (8002870 <prvAddNewTaskToReadyList+0x90>)
 80027fe:	681b      	ldr	r3, [r3, #0]
 8002800:	6ada      	ldr	r2, [r3, #44]	; 0x2c
 8002802:	6ae3      	ldr	r3, [r4, #44]	; 0x2c
 8002804:	429a      	cmp	r2, r3
 8002806:	d807      	bhi.n	8002818 <prvAddNewTaskToReadyList+0x38>
 8002808:	4b19      	ldr	r3, [pc, #100]	; (8002870 <prvAddNewTaskToReadyList+0x90>)
 800280a:	601c      	str	r4, [r3, #0]
 800280c:	e004      	b.n	8002818 <prvAddNewTaskToReadyList+0x38>
 800280e:	4b18      	ldr	r3, [pc, #96]	; (8002870 <prvAddNewTaskToReadyList+0x90>)
 8002810:	601c      	str	r4, [r3, #0]
 8002812:	6813      	ldr	r3, [r2, #0]
 8002814:	2b01      	cmp	r3, #1
 8002816:	d026      	beq.n	8002866 <prvAddNewTaskToReadyList+0x86>
 8002818:	4a17      	ldr	r2, [pc, #92]	; (8002878 <prvAddNewTaskToReadyList+0x98>)
 800281a:	6813      	ldr	r3, [r2, #0]
 800281c:	3301      	adds	r3, #1
 800281e:	6013      	str	r3, [r2, #0]
 8002820:	6ae3      	ldr	r3, [r4, #44]	; 0x2c
 8002822:	2201      	movs	r2, #1
 8002824:	409a      	lsls	r2, r3
 8002826:	4915      	ldr	r1, [pc, #84]	; (800287c <prvAddNewTaskToReadyList+0x9c>)
 8002828:	6808      	ldr	r0, [r1, #0]
 800282a:	4302      	orrs	r2, r0
 800282c:	600a      	str	r2, [r1, #0]
 800282e:	eb03 0383 	add.w	r3, r3, r3, lsl #2
 8002832:	009a      	lsls	r2, r3, #2
 8002834:	1d21      	adds	r1, r4, #4
 8002836:	4812      	ldr	r0, [pc, #72]	; (8002880 <prvAddNewTaskToReadyList+0xa0>)
 8002838:	4410      	add	r0, r2
 800283a:	f7ff ff0f 	bl	800265c <vListInsertEnd>
 800283e:	f000 fb6f 	bl	8002f20 <vPortExitCritical>
 8002842:	4b0c      	ldr	r3, [pc, #48]	; (8002874 <prvAddNewTaskToReadyList+0x94>)
 8002844:	681b      	ldr	r3, [r3, #0]
 8002846:	b16b      	cbz	r3, 8002864 <prvAddNewTaskToReadyList+0x84>
 8002848:	4b09      	ldr	r3, [pc, #36]	; (8002870 <prvAddNewTaskToReadyList+0x90>)
 800284a:	681b      	ldr	r3, [r3, #0]
 800284c:	6ada      	ldr	r2, [r3, #44]	; 0x2c
 800284e:	6ae3      	ldr	r3, [r4, #44]	; 0x2c
 8002850:	429a      	cmp	r2, r3
 8002852:	d207      	bcs.n	8002864 <prvAddNewTaskToReadyList+0x84>
 8002854:	4b0b      	ldr	r3, [pc, #44]	; (8002884 <prvAddNewTaskToReadyList+0xa4>)
 8002856:	f04f 5280 	mov.w	r2, #268435456	; 0x10000000
 800285a:	601a      	str	r2, [r3, #0]
 800285c:	f3bf 8f4f 	dsb	sy
 8002860:	f3bf 8f6f 	isb	sy
 8002864:	bd10      	pop	{r4, pc}
 8002866:	f7ff ff87 	bl	8002778 <prvInitialiseTaskLists>
 800286a:	e7d5      	b.n	8002818 <prvAddNewTaskToReadyList+0x38>
 800286c:	200022e8 	andcs	r2, r0, r8, ror #5
 8002870:	20002250 	andcs	r2, r0, r0, asr r2
 8002874:	20002344 	andcs	r2, r0, r4, asr #6
 8002878:	200022f8 	strdcs	r2, [r0], -r8
 800287c:	200022fc 	strdcs	r2, [r0], -ip
 8002880:	2000225c 	andcs	r2, r0, ip, asr r2
 8002884:	e000ed04 	and	lr, r0, r4, lsl #26

08002888 <prvCheckTasksWaitingTermination>:
 8002888:	b508      	push	{r3, lr}
 800288a:	4b0b      	ldr	r3, [pc, #44]	; (80028b8 <prvCheckTasksWaitingTermination+0x30>)
 800288c:	681b      	ldr	r3, [r3, #0]
 800288e:	b193      	cbz	r3, 80028b6 <prvCheckTasksWaitingTermination+0x2e>
 8002890:	f000 fb20 	bl	8002ed4 <vPortEnterCritical>
 8002894:	4b09      	ldr	r3, [pc, #36]	; (80028bc <prvCheckTasksWaitingTermination+0x34>)
 8002896:	68db      	ldr	r3, [r3, #12]
 8002898:	68d8      	ldr	r0, [r3, #12]
 800289a:	3004      	adds	r0, #4
 800289c:	f7ff ff03 	bl	80026a6 <uxListRemove>
 80028a0:	4a07      	ldr	r2, [pc, #28]	; (80028c0 <prvCheckTasksWaitingTermination+0x38>)
 80028a2:	6813      	ldr	r3, [r2, #0]
 80028a4:	3b01      	subs	r3, #1
 80028a6:	6013      	str	r3, [r2, #0]
 80028a8:	4a03      	ldr	r2, [pc, #12]	; (80028b8 <prvCheckTasksWaitingTermination+0x30>)
 80028aa:	6813      	ldr	r3, [r2, #0]
 80028ac:	3b01      	subs	r3, #1
 80028ae:	6013      	str	r3, [r2, #0]
 80028b0:	f000 fb36 	bl	8002f20 <vPortExitCritical>
 80028b4:	e7e9      	b.n	800288a <prvCheckTasksWaitingTermination+0x2>
 80028b6:	bd08      	pop	{r3, pc}
 80028b8:	200022ec 	andcs	r2, r0, ip, ror #5
 80028bc:	2000235c 	andcs	r2, r0, ip, asr r3
 80028c0:	200022e8 	andcs	r2, r0, r8, ror #5

080028c4 <prvIdleTask>:
 80028c4:	b508      	push	{r3, lr}
 80028c6:	f7ff ffdf 	bl	8002888 <prvCheckTasksWaitingTermination>
 80028ca:	4b06      	ldr	r3, [pc, #24]	; (80028e4 <prvIdleTask+0x20>)
 80028cc:	681b      	ldr	r3, [r3, #0]
 80028ce:	2b01      	cmp	r3, #1
 80028d0:	d9f9      	bls.n	80028c6 <prvIdleTask+0x2>
 80028d2:	4b05      	ldr	r3, [pc, #20]	; (80028e8 <prvIdleTask+0x24>)
 80028d4:	f04f 5280 	mov.w	r2, #268435456	; 0x10000000
 80028d8:	601a      	str	r2, [r3, #0]
 80028da:	f3bf 8f4f 	dsb	sy
 80028de:	f3bf 8f6f 	isb	sy
 80028e2:	e7f0      	b.n	80028c6 <prvIdleTask+0x2>
 80028e4:	2000225c 	andcs	r2, r0, ip, asr r2
 80028e8:	e000ed04 	and	lr, r0, r4, lsl #26

080028ec <prvAddCurrentTaskToDelayedList>:
 80028ec:	b570      	push	{r4, r5, r6, lr}
 80028ee:	4604      	mov	r4, r0
 80028f0:	460e      	mov	r6, r1
 80028f2:	4b1f      	ldr	r3, [pc, #124]	; (8002970 <prvAddCurrentTaskToDelayedList+0x84>)
 80028f4:	681d      	ldr	r5, [r3, #0]
 80028f6:	4b1f      	ldr	r3, [pc, #124]	; (8002974 <prvAddCurrentTaskToDelayedList+0x88>)
 80028f8:	6818      	ldr	r0, [r3, #0]
 80028fa:	3004      	adds	r0, #4
 80028fc:	f7ff fed3 	bl	80026a6 <uxListRemove>
 8002900:	b950      	cbnz	r0, 8002918 <prvAddCurrentTaskToDelayedList+0x2c>
 8002902:	4b1c      	ldr	r3, [pc, #112]	; (8002974 <prvAddCurrentTaskToDelayedList+0x88>)
 8002904:	681b      	ldr	r3, [r3, #0]
 8002906:	6ada      	ldr	r2, [r3, #44]	; 0x2c
 8002908:	2301      	movs	r3, #1
 800290a:	fa03 f202 	lsl.w	r2, r3, r2
 800290e:	491a      	ldr	r1, [pc, #104]	; (8002978 <prvAddCurrentTaskToDelayedList+0x8c>)
 8002910:	680b      	ldr	r3, [r1, #0]
 8002912:	ea23 0302 	bic.w	r3, r3, r2
 8002916:	600b      	str	r3, [r1, #0]
 8002918:	f1b4 3fff 	cmp.w	r4, #4294967295	; 0xffffffff
 800291c:	bf14      	ite	ne
 800291e:	2300      	movne	r3, #0
 8002920:	2301      	moveq	r3, #1
 8002922:	2e00      	cmp	r6, #0
 8002924:	bf08      	it	eq
 8002926:	2300      	moveq	r3, #0
 8002928:	b96b      	cbnz	r3, 8002946 <prvAddCurrentTaskToDelayedList+0x5a>
 800292a:	442c      	add	r4, r5
 800292c:	4b11      	ldr	r3, [pc, #68]	; (8002974 <prvAddCurrentTaskToDelayedList+0x88>)
 800292e:	681b      	ldr	r3, [r3, #0]
 8002930:	605c      	str	r4, [r3, #4]
 8002932:	42a5      	cmp	r5, r4
 8002934:	d90e      	bls.n	8002954 <prvAddCurrentTaskToDelayedList+0x68>
 8002936:	4b11      	ldr	r3, [pc, #68]	; (800297c <prvAddCurrentTaskToDelayedList+0x90>)
 8002938:	6818      	ldr	r0, [r3, #0]
 800293a:	4b0e      	ldr	r3, [pc, #56]	; (8002974 <prvAddCurrentTaskToDelayedList+0x88>)
 800293c:	6819      	ldr	r1, [r3, #0]
 800293e:	3104      	adds	r1, #4
 8002940:	f7ff fe97 	bl	8002672 <vListInsert>
 8002944:	bd70      	pop	{r4, r5, r6, pc}
 8002946:	4b0b      	ldr	r3, [pc, #44]	; (8002974 <prvAddCurrentTaskToDelayedList+0x88>)
 8002948:	6819      	ldr	r1, [r3, #0]
 800294a:	3104      	adds	r1, #4
 800294c:	480c      	ldr	r0, [pc, #48]	; (8002980 <prvAddCurrentTaskToDelayedList+0x94>)
 800294e:	f7ff fe85 	bl	800265c <vListInsertEnd>
 8002952:	e7f7      	b.n	8002944 <prvAddCurrentTaskToDelayedList+0x58>
 8002954:	4b0b      	ldr	r3, [pc, #44]	; (8002984 <prvAddCurrentTaskToDelayedList+0x98>)
 8002956:	6818      	ldr	r0, [r3, #0]
 8002958:	4b06      	ldr	r3, [pc, #24]	; (8002974 <prvAddCurrentTaskToDelayedList+0x88>)
 800295a:	6819      	ldr	r1, [r3, #0]
 800295c:	3104      	adds	r1, #4
 800295e:	f7ff fe88 	bl	8002672 <vListInsert>
 8002962:	4b09      	ldr	r3, [pc, #36]	; (8002988 <prvAddCurrentTaskToDelayedList+0x9c>)
 8002964:	681b      	ldr	r3, [r3, #0]
 8002966:	42a3      	cmp	r3, r4
 8002968:	d9ec      	bls.n	8002944 <prvAddCurrentTaskToDelayedList+0x58>
 800296a:	4b07      	ldr	r3, [pc, #28]	; (8002988 <prvAddCurrentTaskToDelayedList+0x9c>)
 800296c:	601c      	str	r4, [r3, #0]
 800296e:	e7e9      	b.n	8002944 <prvAddCurrentTaskToDelayedList+0x58>
 8002970:	20002370 	andcs	r2, r0, r0, ror r3
 8002974:	20002250 	andcs	r2, r0, r0, asr r2
 8002978:	200022fc 	strdcs	r2, [r0], -ip
 800297c:	20002258 	andcs	r2, r0, r8, asr r2
 8002980:	20002348 	andcs	r2, r0, r8, asr #6
 8002984:	20002254 	andcs	r2, r0, r4, asr r2
 8002988:	20002328 	andcs	r2, r0, r8, lsr #6

0800298c <xTaskCreateStatic>:
 800298c:	b570      	push	{r4, r5, r6, lr}
 800298e:	b086      	sub	sp, #24
 8002990:	9d0b      	ldr	r5, [sp, #44]	; 0x2c
 8002992:	9c0c      	ldr	r4, [sp, #48]	; 0x30
 8002994:	b185      	cbz	r5, 80029b8 <xTaskCreateStatic+0x2c>
 8002996:	b1d4      	cbz	r4, 80029ce <xTaskCreateStatic+0x42>
 8002998:	2654      	movs	r6, #84	; 0x54
 800299a:	9604      	str	r6, [sp, #16]
 800299c:	9e04      	ldr	r6, [sp, #16]
 800299e:	2e54      	cmp	r6, #84	; 0x54
 80029a0:	d020      	beq.n	80029e4 <xTaskCreateStatic+0x58>
 80029a2:	f04f 0350 	mov.w	r3, #80	; 0x50
 80029a6:	b672      	cpsid	i
 80029a8:	f383 8811 	msr	BASEPRI, r3
 80029ac:	f3bf 8f6f 	isb	sy
 80029b0:	f3bf 8f4f 	dsb	sy
 80029b4:	b662      	cpsie	i
 80029b6:	e7fe      	b.n	80029b6 <xTaskCreateStatic+0x2a>
 80029b8:	f04f 0350 	mov.w	r3, #80	; 0x50
 80029bc:	b672      	cpsid	i
 80029be:	f383 8811 	msr	BASEPRI, r3
 80029c2:	f3bf 8f6f 	isb	sy
 80029c6:	f3bf 8f4f 	dsb	sy
 80029ca:	b662      	cpsie	i
 80029cc:	e7fe      	b.n	80029cc <xTaskCreateStatic+0x40>
 80029ce:	f04f 0350 	mov.w	r3, #80	; 0x50
 80029d2:	b672      	cpsid	i
 80029d4:	f383 8811 	msr	BASEPRI, r3
 80029d8:	f3bf 8f6f 	isb	sy
 80029dc:	f3bf 8f4f 	dsb	sy
 80029e0:	b662      	cpsie	i
 80029e2:	e7fe      	b.n	80029e2 <xTaskCreateStatic+0x56>
 80029e4:	6325      	str	r5, [r4, #48]	; 0x30
 80029e6:	2500      	movs	r5, #0
 80029e8:	9503      	str	r5, [sp, #12]
 80029ea:	9402      	str	r4, [sp, #8]
 80029ec:	ad05      	add	r5, sp, #20
 80029ee:	9501      	str	r5, [sp, #4]
 80029f0:	9d0a      	ldr	r5, [sp, #40]	; 0x28
 80029f2:	9500      	str	r5, [sp, #0]
 80029f4:	f7ff fe80 	bl	80026f8 <prvInitialiseNewTask>
 80029f8:	4620      	mov	r0, r4
 80029fa:	f7ff fef1 	bl	80027e0 <prvAddNewTaskToReadyList>
 80029fe:	9805      	ldr	r0, [sp, #20]
 8002a00:	b006      	add	sp, #24
 8002a02:	bd70      	pop	{r4, r5, r6, pc}

08002a04 <vTaskStartScheduler>:
 8002a04:	b510      	push	{r4, lr}
 8002a06:	b088      	sub	sp, #32
 8002a08:	2400      	movs	r4, #0
 8002a0a:	9405      	str	r4, [sp, #20]
 8002a0c:	9406      	str	r4, [sp, #24]
 8002a0e:	aa07      	add	r2, sp, #28
 8002a10:	a906      	add	r1, sp, #24
 8002a12:	a805      	add	r0, sp, #20
 8002a14:	f000 f9e8 	bl	8002de8 <vApplicationGetIdleTaskMemory>
 8002a18:	9b05      	ldr	r3, [sp, #20]
 8002a1a:	9302      	str	r3, [sp, #8]
 8002a1c:	9b06      	ldr	r3, [sp, #24]
 8002a1e:	9301      	str	r3, [sp, #4]
 8002a20:	9400      	str	r4, [sp, #0]
 8002a22:	4623      	mov	r3, r4
 8002a24:	9a07      	ldr	r2, [sp, #28]
 8002a26:	490e      	ldr	r1, [pc, #56]	; (8002a60 <vTaskStartScheduler+0x5c>)
 8002a28:	480e      	ldr	r0, [pc, #56]	; (8002a64 <vTaskStartScheduler+0x60>)
 8002a2a:	f7ff ffaf 	bl	800298c <xTaskCreateStatic>
 8002a2e:	b1a0      	cbz	r0, 8002a5a <vTaskStartScheduler+0x56>
 8002a30:	f04f 0350 	mov.w	r3, #80	; 0x50
 8002a34:	b672      	cpsid	i
 8002a36:	f383 8811 	msr	BASEPRI, r3
 8002a3a:	f3bf 8f6f 	isb	sy
 8002a3e:	f3bf 8f4f 	dsb	sy
 8002a42:	b662      	cpsie	i
 8002a44:	4b08      	ldr	r3, [pc, #32]	; (8002a68 <vTaskStartScheduler+0x64>)
 8002a46:	f04f 32ff 	mov.w	r2, #4294967295	; 0xffffffff
 8002a4a:	601a      	str	r2, [r3, #0]
 8002a4c:	4b07      	ldr	r3, [pc, #28]	; (8002a6c <vTaskStartScheduler+0x68>)
 8002a4e:	2201      	movs	r2, #1
 8002a50:	601a      	str	r2, [r3, #0]
 8002a52:	4b07      	ldr	r3, [pc, #28]	; (8002a70 <vTaskStartScheduler+0x6c>)
 8002a54:	601c      	str	r4, [r3, #0]
 8002a56:	f000 fae1 	bl	800301c <xPortStartScheduler>
 8002a5a:	b008      	add	sp, #32
 8002a5c:	bd10      	pop	{r4, pc}
 8002a5e:	bf00      	nop
 8002a60:	08004ad8 	stmdaeq	r0, {r3, r4, r6, r7, r9, fp, lr}
 8002a64:	080028c5 	stmdaeq	r0, {r0, r2, r6, r7, fp, sp}
 8002a68:	20002328 	andcs	r2, r0, r8, lsr #6
 8002a6c:	20002344 	andcs	r2, r0, r4, asr #6
 8002a70:	20002370 	andcs	r2, r0, r0, ror r3

08002a74 <vTaskSuspendAll>:
 8002a74:	4a02      	ldr	r2, [pc, #8]	; (8002a80 <vTaskSuspendAll+0xc>)
 8002a76:	6813      	ldr	r3, [r2, #0]
 8002a78:	3301      	adds	r3, #1
 8002a7a:	6013      	str	r3, [r2, #0]
 8002a7c:	4770      	bx	lr
 8002a7e:	bf00      	nop
 8002a80:	200022f4 	strdcs	r2, [r0], -r4

08002a84 <xTaskIncrementTick>:
 8002a84:	b5f8      	push	{r3, r4, r5, r6, r7, lr}
 8002a86:	4b3b      	ldr	r3, [pc, #236]	; (8002b74 <xTaskIncrementTick+0xf0>)
 8002a88:	681b      	ldr	r3, [r3, #0]
 8002a8a:	2b00      	cmp	r3, #0
 8002a8c:	d166      	bne.n	8002b5c <xTaskIncrementTick+0xd8>
 8002a8e:	4b3a      	ldr	r3, [pc, #232]	; (8002b78 <xTaskIncrementTick+0xf4>)
 8002a90:	681d      	ldr	r5, [r3, #0]
 8002a92:	3501      	adds	r5, #1
 8002a94:	601d      	str	r5, [r3, #0]
 8002a96:	b9d5      	cbnz	r5, 8002ace <xTaskIncrementTick+0x4a>
 8002a98:	4b38      	ldr	r3, [pc, #224]	; (8002b7c <xTaskIncrementTick+0xf8>)
 8002a9a:	681b      	ldr	r3, [r3, #0]
 8002a9c:	681b      	ldr	r3, [r3, #0]
 8002a9e:	b153      	cbz	r3, 8002ab6 <xTaskIncrementTick+0x32>
 8002aa0:	f04f 0350 	mov.w	r3, #80	; 0x50
 8002aa4:	b672      	cpsid	i
 8002aa6:	f383 8811 	msr	BASEPRI, r3
 8002aaa:	f3bf 8f6f 	isb	sy
 8002aae:	f3bf 8f4f 	dsb	sy
 8002ab2:	b662      	cpsie	i
 8002ab4:	e7fe      	b.n	8002ab4 <xTaskIncrementTick+0x30>
 8002ab6:	4a31      	ldr	r2, [pc, #196]	; (8002b7c <xTaskIncrementTick+0xf8>)
 8002ab8:	6811      	ldr	r1, [r2, #0]
 8002aba:	4b31      	ldr	r3, [pc, #196]	; (8002b80 <xTaskIncrementTick+0xfc>)
 8002abc:	6818      	ldr	r0, [r3, #0]
 8002abe:	6010      	str	r0, [r2, #0]
 8002ac0:	6019      	str	r1, [r3, #0]
 8002ac2:	4a30      	ldr	r2, [pc, #192]	; (8002b84 <xTaskIncrementTick+0x100>)
 8002ac4:	6813      	ldr	r3, [r2, #0]
 8002ac6:	3301      	adds	r3, #1
 8002ac8:	6013      	str	r3, [r2, #0]
 8002aca:	f7ff fdff 	bl	80026cc <prvResetNextTaskUnblockTime>
 8002ace:	4b2e      	ldr	r3, [pc, #184]	; (8002b88 <xTaskIncrementTick+0x104>)
 8002ad0:	681b      	ldr	r3, [r3, #0]
 8002ad2:	42ab      	cmp	r3, r5
 8002ad4:	d938      	bls.n	8002b48 <xTaskIncrementTick+0xc4>
 8002ad6:	2400      	movs	r4, #0
 8002ad8:	4b2c      	ldr	r3, [pc, #176]	; (8002b8c <xTaskIncrementTick+0x108>)
 8002ada:	681b      	ldr	r3, [r3, #0]
 8002adc:	6adb      	ldr	r3, [r3, #44]	; 0x2c
 8002ade:	eb03 0383 	add.w	r3, r3, r3, lsl #2
 8002ae2:	009a      	lsls	r2, r3, #2
 8002ae4:	4b2a      	ldr	r3, [pc, #168]	; (8002b90 <xTaskIncrementTick+0x10c>)
 8002ae6:	589b      	ldr	r3, [r3, r2]
 8002ae8:	2b01      	cmp	r3, #1
 8002aea:	d93c      	bls.n	8002b66 <xTaskIncrementTick+0xe2>
 8002aec:	2401      	movs	r4, #1
 8002aee:	e03a      	b.n	8002b66 <xTaskIncrementTick+0xe2>
 8002af0:	2401      	movs	r4, #1
 8002af2:	4b22      	ldr	r3, [pc, #136]	; (8002b7c <xTaskIncrementTick+0xf8>)
 8002af4:	681b      	ldr	r3, [r3, #0]
 8002af6:	681b      	ldr	r3, [r3, #0]
 8002af8:	b343      	cbz	r3, 8002b4c <xTaskIncrementTick+0xc8>
 8002afa:	4b20      	ldr	r3, [pc, #128]	; (8002b7c <xTaskIncrementTick+0xf8>)
 8002afc:	681b      	ldr	r3, [r3, #0]
 8002afe:	68db      	ldr	r3, [r3, #12]
 8002b00:	68de      	ldr	r6, [r3, #12]
 8002b02:	6873      	ldr	r3, [r6, #4]
 8002b04:	429d      	cmp	r5, r3
 8002b06:	d326      	bcc.n	8002b56 <xTaskIncrementTick+0xd2>
 8002b08:	1d37      	adds	r7, r6, #4
 8002b0a:	4638      	mov	r0, r7
 8002b0c:	f7ff fdcb 	bl	80026a6 <uxListRemove>
 8002b10:	6ab3      	ldr	r3, [r6, #40]	; 0x28
 8002b12:	b11b      	cbz	r3, 8002b1c <xTaskIncrementTick+0x98>
 8002b14:	f106 0018 	add.w	r0, r6, #24
 8002b18:	f7ff fdc5 	bl	80026a6 <uxListRemove>
 8002b1c:	6af3      	ldr	r3, [r6, #44]	; 0x2c
 8002b1e:	2201      	movs	r2, #1
 8002b20:	409a      	lsls	r2, r3
 8002b22:	491c      	ldr	r1, [pc, #112]	; (8002b94 <xTaskIncrementTick+0x110>)
 8002b24:	6808      	ldr	r0, [r1, #0]
 8002b26:	4302      	orrs	r2, r0
 8002b28:	600a      	str	r2, [r1, #0]
 8002b2a:	eb03 0383 	add.w	r3, r3, r3, lsl #2
 8002b2e:	009a      	lsls	r2, r3, #2
 8002b30:	4639      	mov	r1, r7
 8002b32:	4817      	ldr	r0, [pc, #92]	; (8002b90 <xTaskIncrementTick+0x10c>)
 8002b34:	4410      	add	r0, r2
 8002b36:	f7ff fd91 	bl	800265c <vListInsertEnd>
 8002b3a:	6af2      	ldr	r2, [r6, #44]	; 0x2c
 8002b3c:	4b13      	ldr	r3, [pc, #76]	; (8002b8c <xTaskIncrementTick+0x108>)
 8002b3e:	681b      	ldr	r3, [r3, #0]
 8002b40:	6adb      	ldr	r3, [r3, #44]	; 0x2c
 8002b42:	429a      	cmp	r2, r3
 8002b44:	d2d4      	bcs.n	8002af0 <xTaskIncrementTick+0x6c>
 8002b46:	e7d4      	b.n	8002af2 <xTaskIncrementTick+0x6e>
 8002b48:	2400      	movs	r4, #0
 8002b4a:	e7d2      	b.n	8002af2 <xTaskIncrementTick+0x6e>
 8002b4c:	4b0e      	ldr	r3, [pc, #56]	; (8002b88 <xTaskIncrementTick+0x104>)
 8002b4e:	f04f 32ff 	mov.w	r2, #4294967295	; 0xffffffff
 8002b52:	601a      	str	r2, [r3, #0]
 8002b54:	e7c0      	b.n	8002ad8 <xTaskIncrementTick+0x54>
 8002b56:	4a0c      	ldr	r2, [pc, #48]	; (8002b88 <xTaskIncrementTick+0x104>)
 8002b58:	6013      	str	r3, [r2, #0]
 8002b5a:	e7bd      	b.n	8002ad8 <xTaskIncrementTick+0x54>
 8002b5c:	4a0e      	ldr	r2, [pc, #56]	; (8002b98 <xTaskIncrementTick+0x114>)
 8002b5e:	6813      	ldr	r3, [r2, #0]
 8002b60:	3301      	adds	r3, #1
 8002b62:	6013      	str	r3, [r2, #0]
 8002b64:	2400      	movs	r4, #0
 8002b66:	4b0d      	ldr	r3, [pc, #52]	; (8002b9c <xTaskIncrementTick+0x118>)
 8002b68:	681b      	ldr	r3, [r3, #0]
 8002b6a:	b103      	cbz	r3, 8002b6e <xTaskIncrementTick+0xea>
 8002b6c:	2401      	movs	r4, #1
 8002b6e:	4620      	mov	r0, r4
 8002b70:	bdf8      	pop	{r3, r4, r5, r6, r7, pc}
 8002b72:	bf00      	nop
 8002b74:	200022f4 	strdcs	r2, [r0], -r4
 8002b78:	20002370 	andcs	r2, r0, r0, ror r3
 8002b7c:	20002254 	andcs	r2, r0, r4, asr r2
 8002b80:	20002258 	andcs	r2, r0, r8, asr r2
 8002b84:	2000232c 	andcs	r2, r0, ip, lsr #6
 8002b88:	20002328 	andcs	r2, r0, r8, lsr #6
 8002b8c:	20002250 	andcs	r2, r0, r0, asr r2
 8002b90:	2000225c 	andcs	r2, r0, ip, asr r2
 8002b94:	200022fc 	strdcs	r2, [r0], -ip
 8002b98:	200022f0 	strdcs	r2, [r0], -r0
 8002b9c:	20002374 	andcs	r2, r0, r4, ror r3

08002ba0 <xTaskResumeAll>:
 8002ba0:	b538      	push	{r3, r4, r5, lr}
 8002ba2:	4b36      	ldr	r3, [pc, #216]	; (8002c7c <xTaskResumeAll+0xdc>)
 8002ba4:	681b      	ldr	r3, [r3, #0]
 8002ba6:	b953      	cbnz	r3, 8002bbe <xTaskResumeAll+0x1e>
 8002ba8:	f04f 0350 	mov.w	r3, #80	; 0x50
 8002bac:	b672      	cpsid	i
 8002bae:	f383 8811 	msr	BASEPRI, r3
 8002bb2:	f3bf 8f6f 	isb	sy
 8002bb6:	f3bf 8f4f 	dsb	sy
 8002bba:	b662      	cpsie	i
 8002bbc:	e7fe      	b.n	8002bbc <xTaskResumeAll+0x1c>
 8002bbe:	f000 f989 	bl	8002ed4 <vPortEnterCritical>
 8002bc2:	4b2e      	ldr	r3, [pc, #184]	; (8002c7c <xTaskResumeAll+0xdc>)
 8002bc4:	681a      	ldr	r2, [r3, #0]
 8002bc6:	3a01      	subs	r2, #1
 8002bc8:	601a      	str	r2, [r3, #0]
 8002bca:	681b      	ldr	r3, [r3, #0]
 8002bcc:	2b00      	cmp	r3, #0
 8002bce:	d14d      	bne.n	8002c6c <xTaskResumeAll+0xcc>
 8002bd0:	4b2b      	ldr	r3, [pc, #172]	; (8002c80 <xTaskResumeAll+0xe0>)
 8002bd2:	681b      	ldr	r3, [r3, #0]
 8002bd4:	b90b      	cbnz	r3, 8002bda <xTaskResumeAll+0x3a>
 8002bd6:	2400      	movs	r4, #0
 8002bd8:	e049      	b.n	8002c6e <xTaskResumeAll+0xce>
 8002bda:	2400      	movs	r4, #0
 8002bdc:	4b29      	ldr	r3, [pc, #164]	; (8002c84 <xTaskResumeAll+0xe4>)
 8002bde:	681b      	ldr	r3, [r3, #0]
 8002be0:	b31b      	cbz	r3, 8002c2a <xTaskResumeAll+0x8a>
 8002be2:	4b28      	ldr	r3, [pc, #160]	; (8002c84 <xTaskResumeAll+0xe4>)
 8002be4:	68db      	ldr	r3, [r3, #12]
 8002be6:	68dc      	ldr	r4, [r3, #12]
 8002be8:	f104 0018 	add.w	r0, r4, #24
 8002bec:	f7ff fd5b 	bl	80026a6 <uxListRemove>
 8002bf0:	1d25      	adds	r5, r4, #4
 8002bf2:	4628      	mov	r0, r5
 8002bf4:	f7ff fd57 	bl	80026a6 <uxListRemove>
 8002bf8:	6ae3      	ldr	r3, [r4, #44]	; 0x2c
 8002bfa:	2201      	movs	r2, #1
 8002bfc:	409a      	lsls	r2, r3
 8002bfe:	4922      	ldr	r1, [pc, #136]	; (8002c88 <xTaskResumeAll+0xe8>)
 8002c00:	6808      	ldr	r0, [r1, #0]
 8002c02:	4302      	orrs	r2, r0
 8002c04:	600a      	str	r2, [r1, #0]
 8002c06:	eb03 0383 	add.w	r3, r3, r3, lsl #2
 8002c0a:	009a      	lsls	r2, r3, #2
 8002c0c:	4629      	mov	r1, r5
 8002c0e:	481f      	ldr	r0, [pc, #124]	; (8002c8c <xTaskResumeAll+0xec>)
 8002c10:	4410      	add	r0, r2
 8002c12:	f7ff fd23 	bl	800265c <vListInsertEnd>
 8002c16:	6ae2      	ldr	r2, [r4, #44]	; 0x2c
 8002c18:	4b1d      	ldr	r3, [pc, #116]	; (8002c90 <xTaskResumeAll+0xf0>)
 8002c1a:	681b      	ldr	r3, [r3, #0]
 8002c1c:	6adb      	ldr	r3, [r3, #44]	; 0x2c
 8002c1e:	429a      	cmp	r2, r3
 8002c20:	d3dc      	bcc.n	8002bdc <xTaskResumeAll+0x3c>
 8002c22:	4b1c      	ldr	r3, [pc, #112]	; (8002c94 <xTaskResumeAll+0xf4>)
 8002c24:	2201      	movs	r2, #1
 8002c26:	601a      	str	r2, [r3, #0]
 8002c28:	e7d8      	b.n	8002bdc <xTaskResumeAll+0x3c>
 8002c2a:	b10c      	cbz	r4, 8002c30 <xTaskResumeAll+0x90>
 8002c2c:	f7ff fd4e 	bl	80026cc <prvResetNextTaskUnblockTime>
 8002c30:	4b19      	ldr	r3, [pc, #100]	; (8002c98 <xTaskResumeAll+0xf8>)
 8002c32:	681c      	ldr	r4, [r3, #0]
 8002c34:	b974      	cbnz	r4, 8002c54 <xTaskResumeAll+0xb4>
 8002c36:	4b17      	ldr	r3, [pc, #92]	; (8002c94 <xTaskResumeAll+0xf4>)
 8002c38:	681b      	ldr	r3, [r3, #0]
 8002c3a:	b1e3      	cbz	r3, 8002c76 <xTaskResumeAll+0xd6>
 8002c3c:	4b17      	ldr	r3, [pc, #92]	; (8002c9c <xTaskResumeAll+0xfc>)
 8002c3e:	f04f 5280 	mov.w	r2, #268435456	; 0x10000000
 8002c42:	601a      	str	r2, [r3, #0]
 8002c44:	f3bf 8f4f 	dsb	sy
 8002c48:	f3bf 8f6f 	isb	sy
 8002c4c:	2401      	movs	r4, #1
 8002c4e:	e00e      	b.n	8002c6e <xTaskResumeAll+0xce>
 8002c50:	3c01      	subs	r4, #1
 8002c52:	d007      	beq.n	8002c64 <xTaskResumeAll+0xc4>
 8002c54:	f7ff ff16 	bl	8002a84 <xTaskIncrementTick>
 8002c58:	2800      	cmp	r0, #0
 8002c5a:	d0f9      	beq.n	8002c50 <xTaskResumeAll+0xb0>
 8002c5c:	4b0d      	ldr	r3, [pc, #52]	; (8002c94 <xTaskResumeAll+0xf4>)
 8002c5e:	2201      	movs	r2, #1
 8002c60:	601a      	str	r2, [r3, #0]
 8002c62:	e7f5      	b.n	8002c50 <xTaskResumeAll+0xb0>
 8002c64:	4b0c      	ldr	r3, [pc, #48]	; (8002c98 <xTaskResumeAll+0xf8>)
 8002c66:	2200      	movs	r2, #0
 8002c68:	601a      	str	r2, [r3, #0]
 8002c6a:	e7e4      	b.n	8002c36 <xTaskResumeAll+0x96>
 8002c6c:	2400      	movs	r4, #0
 8002c6e:	f000 f957 	bl	8002f20 <vPortExitCritical>
 8002c72:	4620      	mov	r0, r4
 8002c74:	bd38      	pop	{r3, r4, r5, pc}
 8002c76:	2400      	movs	r4, #0
 8002c78:	e7f9      	b.n	8002c6e <xTaskResumeAll+0xce>
 8002c7a:	bf00      	nop
 8002c7c:	200022f4 	strdcs	r2, [r0], -r4
 8002c80:	200022e8 	andcs	r2, r0, r8, ror #5
 8002c84:	20002330 	andcs	r2, r0, r0, lsr r3
 8002c88:	200022fc 	strdcs	r2, [r0], -ip
 8002c8c:	2000225c 	andcs	r2, r0, ip, asr r2
 8002c90:	20002250 	andcs	r2, r0, r0, asr r2
 8002c94:	20002374 	andcs	r2, r0, r4, ror r3
 8002c98:	200022f0 	strdcs	r2, [r0], -r0
 8002c9c:	e000ed04 	and	lr, r0, r4, lsl #26

08002ca0 <vTaskDelay>:
 8002ca0:	b510      	push	{r4, lr}
 8002ca2:	b1b8      	cbz	r0, 8002cd4 <vTaskDelay+0x34>
 8002ca4:	4604      	mov	r4, r0
 8002ca6:	4b10      	ldr	r3, [pc, #64]	; (8002ce8 <vTaskDelay+0x48>)
 8002ca8:	681b      	ldr	r3, [r3, #0]
 8002caa:	b153      	cbz	r3, 8002cc2 <vTaskDelay+0x22>
 8002cac:	f04f 0350 	mov.w	r3, #80	; 0x50
 8002cb0:	b672      	cpsid	i
 8002cb2:	f383 8811 	msr	BASEPRI, r3
 8002cb6:	f3bf 8f6f 	isb	sy
 8002cba:	f3bf 8f4f 	dsb	sy
 8002cbe:	b662      	cpsie	i
 8002cc0:	e7fe      	b.n	8002cc0 <vTaskDelay+0x20>
 8002cc2:	f7ff fed7 	bl	8002a74 <vTaskSuspendAll>
 8002cc6:	2100      	movs	r1, #0
 8002cc8:	4620      	mov	r0, r4
 8002cca:	f7ff fe0f 	bl	80028ec <prvAddCurrentTaskToDelayedList>
 8002cce:	f7ff ff67 	bl	8002ba0 <xTaskResumeAll>
 8002cd2:	b938      	cbnz	r0, 8002ce4 <vTaskDelay+0x44>
 8002cd4:	4b05      	ldr	r3, [pc, #20]	; (8002cec <vTaskDelay+0x4c>)
 8002cd6:	f04f 5280 	mov.w	r2, #268435456	; 0x10000000
 8002cda:	601a      	str	r2, [r3, #0]
 8002cdc:	f3bf 8f4f 	dsb	sy
 8002ce0:	f3bf 8f6f 	isb	sy
 8002ce4:	bd10      	pop	{r4, pc}
 8002ce6:	bf00      	nop
 8002ce8:	200022f4 	strdcs	r2, [r0], -r4
 8002cec:	e000ed04 	and	lr, r0, r4, lsl #26

08002cf0 <vTaskSwitchContext>:
 8002cf0:	4b22      	ldr	r3, [pc, #136]	; (8002d7c <vTaskSwitchContext+0x8c>)
 8002cf2:	681b      	ldr	r3, [r3, #0]
 8002cf4:	b11b      	cbz	r3, 8002cfe <vTaskSwitchContext+0xe>
 8002cf6:	4b22      	ldr	r3, [pc, #136]	; (8002d80 <vTaskSwitchContext+0x90>)
 8002cf8:	2201      	movs	r2, #1
 8002cfa:	601a      	str	r2, [r3, #0]
 8002cfc:	4770      	bx	lr
 8002cfe:	4b20      	ldr	r3, [pc, #128]	; (8002d80 <vTaskSwitchContext+0x90>)
 8002d00:	2200      	movs	r2, #0
 8002d02:	601a      	str	r2, [r3, #0]
 8002d04:	4b1f      	ldr	r3, [pc, #124]	; (8002d84 <vTaskSwitchContext+0x94>)
 8002d06:	681b      	ldr	r3, [r3, #0]
 8002d08:	fab3 f383 	clz	r3, r3
 8002d0c:	b2db      	uxtb	r3, r3
 8002d0e:	f1c3 031f 	rsb	r3, r3, #31
 8002d12:	eb03 0183 	add.w	r1, r3, r3, lsl #2
 8002d16:	008a      	lsls	r2, r1, #2
 8002d18:	491b      	ldr	r1, [pc, #108]	; (8002d88 <vTaskSwitchContext+0x98>)
 8002d1a:	588a      	ldr	r2, [r1, r2]
 8002d1c:	b952      	cbnz	r2, 8002d34 <vTaskSwitchContext+0x44>
 8002d1e:	f04f 0350 	mov.w	r3, #80	; 0x50
 8002d22:	b672      	cpsid	i
 8002d24:	f383 8811 	msr	BASEPRI, r3
 8002d28:	f3bf 8f6f 	isb	sy
 8002d2c:	f3bf 8f4f 	dsb	sy
 8002d30:	b662      	cpsie	i
 8002d32:	e7fe      	b.n	8002d32 <vTaskSwitchContext+0x42>
 8002d34:	b410      	push	{r4}
 8002d36:	4814      	ldr	r0, [pc, #80]	; (8002d88 <vTaskSwitchContext+0x98>)
 8002d38:	009a      	lsls	r2, r3, #2
 8002d3a:	18d4      	adds	r4, r2, r3
 8002d3c:	00a1      	lsls	r1, r4, #2
 8002d3e:	4401      	add	r1, r0
 8002d40:	684c      	ldr	r4, [r1, #4]
 8002d42:	6864      	ldr	r4, [r4, #4]
 8002d44:	604c      	str	r4, [r1, #4]
 8002d46:	441a      	add	r2, r3
 8002d48:	0091      	lsls	r1, r2, #2
 8002d4a:	3108      	adds	r1, #8
 8002d4c:	4408      	add	r0, r1
 8002d4e:	4284      	cmp	r4, r0
 8002d50:	d00b      	beq.n	8002d6a <vTaskSwitchContext+0x7a>
 8002d52:	eb03 0383 	add.w	r3, r3, r3, lsl #2
 8002d56:	009a      	lsls	r2, r3, #2
 8002d58:	4b0b      	ldr	r3, [pc, #44]	; (8002d88 <vTaskSwitchContext+0x98>)
 8002d5a:	4413      	add	r3, r2
 8002d5c:	685b      	ldr	r3, [r3, #4]
 8002d5e:	68da      	ldr	r2, [r3, #12]
 8002d60:	4b0a      	ldr	r3, [pc, #40]	; (8002d8c <vTaskSwitchContext+0x9c>)
 8002d62:	601a      	str	r2, [r3, #0]
 8002d64:	f85d 4b04 	ldr.w	r4, [sp], #4
 8002d68:	4770      	bx	lr
 8002d6a:	6860      	ldr	r0, [r4, #4]
 8002d6c:	eb03 0283 	add.w	r2, r3, r3, lsl #2
 8002d70:	0091      	lsls	r1, r2, #2
 8002d72:	4a05      	ldr	r2, [pc, #20]	; (8002d88 <vTaskSwitchContext+0x98>)
 8002d74:	440a      	add	r2, r1
 8002d76:	6050      	str	r0, [r2, #4]
 8002d78:	e7eb      	b.n	8002d52 <vTaskSwitchContext+0x62>
 8002d7a:	bf00      	nop
 8002d7c:	200022f4 	strdcs	r2, [r0], -r4
 8002d80:	20002374 	andcs	r2, r0, r4, ror r3
 8002d84:	200022fc 	strdcs	r2, [r0], -ip
 8002d88:	2000225c 	andcs	r2, r0, ip, asr r2
 8002d8c:	20002250 	andcs	r2, r0, r0, asr r2

08002d90 <makeFreeRtosPriority>:
 8002d90:	2884      	cmp	r0, #132	; 0x84
 8002d92:	d001      	beq.n	8002d98 <makeFreeRtosPriority+0x8>
 8002d94:	3003      	adds	r0, #3
 8002d96:	4770      	bx	lr
 8002d98:	2000      	movs	r0, #0
 8002d9a:	4770      	bx	lr

08002d9c <osKernelStart>:
 8002d9c:	b508      	push	{r3, lr}
 8002d9e:	f7ff fe31 	bl	8002a04 <vTaskStartScheduler>
 8002da2:	2000      	movs	r0, #0
 8002da4:	bd08      	pop	{r3, pc}

08002da6 <osThreadCreate>:
 8002da6:	b5f0      	push	{r4, r5, r6, r7, lr}
 8002da8:	b085      	sub	sp, #20
 8002daa:	4604      	mov	r4, r0
 8002dac:	460f      	mov	r7, r1
 8002dae:	6845      	ldr	r5, [r0, #4]
 8002db0:	6806      	ldr	r6, [r0, #0]
 8002db2:	f9b0 0008 	ldrsh.w	r0, [r0, #8]
 8002db6:	f7ff ffeb 	bl	8002d90 <makeFreeRtosPriority>
 8002dba:	6963      	ldr	r3, [r4, #20]
 8002dbc:	69a2      	ldr	r2, [r4, #24]
 8002dbe:	9202      	str	r2, [sp, #8]
 8002dc0:	9301      	str	r3, [sp, #4]
 8002dc2:	9000      	str	r0, [sp, #0]
 8002dc4:	463b      	mov	r3, r7
 8002dc6:	6922      	ldr	r2, [r4, #16]
 8002dc8:	4631      	mov	r1, r6
 8002dca:	4628      	mov	r0, r5
 8002dcc:	f7ff fdde 	bl	800298c <xTaskCreateStatic>
 8002dd0:	b005      	add	sp, #20
 8002dd2:	bdf0      	pop	{r4, r5, r6, r7, pc}

08002dd4 <osDelay>:
 8002dd4:	b508      	push	{r3, lr}
 8002dd6:	4603      	mov	r3, r0
 8002dd8:	b900      	cbnz	r0, 8002ddc <osDelay+0x8>
 8002dda:	2301      	movs	r3, #1
 8002ddc:	4618      	mov	r0, r3
 8002dde:	f7ff ff5f 	bl	8002ca0 <vTaskDelay>
 8002de2:	2000      	movs	r0, #0
 8002de4:	bd08      	pop	{r3, pc}
	...

08002de8 <vApplicationGetIdleTaskMemory>:
 8002de8:	4b03      	ldr	r3, [pc, #12]	; (8002df8 <vApplicationGetIdleTaskMemory+0x10>)
 8002dea:	6003      	str	r3, [r0, #0]
 8002dec:	4b03      	ldr	r3, [pc, #12]	; (8002dfc <vApplicationGetIdleTaskMemory+0x14>)
 8002dee:	600b      	str	r3, [r1, #0]
 8002df0:	2380      	movs	r3, #128	; 0x80
 8002df2:	6013      	str	r3, [r2, #0]
 8002df4:	4770      	bx	lr
 8002df6:	bf00      	nop
 8002df8:	20002578 	andcs	r2, r0, r8, ror r5
 8002dfc:	20002378 	andcs	r2, r0, r8, ror r3

08002e00 <prvTaskExitError>:
 8002e00:	b082      	sub	sp, #8
 8002e02:	2300      	movs	r3, #0
 8002e04:	9301      	str	r3, [sp, #4]
 8002e06:	4b0f      	ldr	r3, [pc, #60]	; (8002e44 <prvTaskExitError+0x44>)
 8002e08:	681b      	ldr	r3, [r3, #0]
 8002e0a:	f1b3 3fff 	cmp.w	r3, #4294967295	; 0xffffffff
 8002e0e:	d00a      	beq.n	8002e26 <prvTaskExitError+0x26>
 8002e10:	f04f 0350 	mov.w	r3, #80	; 0x50
 8002e14:	b672      	cpsid	i
 8002e16:	f383 8811 	msr	BASEPRI, r3
 8002e1a:	f3bf 8f6f 	isb	sy
 8002e1e:	f3bf 8f4f 	dsb	sy
 8002e22:	b662      	cpsie	i
 8002e24:	e7fe      	b.n	8002e24 <prvTaskExitError+0x24>
 8002e26:	f04f 0350 	mov.w	r3, #80	; 0x50
 8002e2a:	b672      	cpsid	i
 8002e2c:	f383 8811 	msr	BASEPRI, r3
 8002e30:	f3bf 8f6f 	isb	sy
 8002e34:	f3bf 8f4f 	dsb	sy
 8002e38:	b662      	cpsie	i
 8002e3a:	9b01      	ldr	r3, [sp, #4]
 8002e3c:	2b00      	cmp	r3, #0
 8002e3e:	d0fc      	beq.n	8002e3a <prvTaskExitError+0x3a>
 8002e40:	b002      	add	sp, #8
 8002e42:	4770      	bx	lr
 8002e44:	20000008 	andcs	r0, r0, r8

08002e48 <prvPortStartFirstTask>:
 8002e48:	4808      	ldr	r0, [pc, #32]	; (8002e6c <prvPortStartFirstTask+0x24>)
 8002e4a:	6800      	ldr	r0, [r0, #0]
 8002e4c:	6800      	ldr	r0, [r0, #0]
 8002e4e:	f380 8808 	msr	MSP, r0
 8002e52:	f04f 0000 	mov.w	r0, #0
 8002e56:	f380 8814 	msr	CONTROL, r0
 8002e5a:	b662      	cpsie	i
 8002e5c:	b661      	cpsie	f
 8002e5e:	f3bf 8f4f 	dsb	sy
 8002e62:	f3bf 8f6f 	isb	sy
 8002e66:	df00      	svc	0
 8002e68:	bf00      	nop
 8002e6a:	ed080000 	stc	0, cr0, [r8, #-0]
 8002e6e:	 			; <UNDEFINED> instruction: 0xf8dfe000

08002e70 <vPortEnableVFP>:
 8002e70:	f8df 000c 	ldr.w	r0, [pc, #12]	; 8002e80 <vPortEnableVFP+0x10>
 8002e74:	6801      	ldr	r1, [r0, #0]
 8002e76:	f441 0170 	orr.w	r1, r1, #15728640	; 0xf00000
 8002e7a:	6001      	str	r1, [r0, #0]
 8002e7c:	4770      	bx	lr
 8002e7e:	ed880000 	stc	0, cr0, [r8]
 8002e82:	 			; <UNDEFINED> instruction: 0xf04fe000

08002e84 <pxPortInitialiseStack>:
 8002e84:	f04f 7380 	mov.w	r3, #16777216	; 0x1000000
 8002e88:	f840 3c04 	str.w	r3, [r0, #-4]
 8002e8c:	f021 0101 	bic.w	r1, r1, #1
 8002e90:	f840 1c08 	str.w	r1, [r0, #-8]
 8002e94:	4b05      	ldr	r3, [pc, #20]	; (8002eac <pxPortInitialiseStack+0x28>)
 8002e96:	f840 3c0c 	str.w	r3, [r0, #-12]
 8002e9a:	f840 2c20 	str.w	r2, [r0, #-32]
 8002e9e:	f06f 0302 	mvn.w	r3, #2
 8002ea2:	f840 3c24 	str.w	r3, [r0, #-36]
 8002ea6:	3844      	subs	r0, #68	; 0x44
 8002ea8:	4770      	bx	lr
 8002eaa:	bf00      	nop
 8002eac:	08002e01 	stmdaeq	r0, {r0, r9, sl, fp, sp}

08002eb0 <SVC_Handler>:
 8002eb0:	4b07      	ldr	r3, [pc, #28]	; (8002ed0 <pxCurrentTCBConst2>)
 8002eb2:	6819      	ldr	r1, [r3, #0]
 8002eb4:	6808      	ldr	r0, [r1, #0]
 8002eb6:	e8b0 4ff0 	ldmia.w	r0!, {r4, r5, r6, r7, r8, r9, sl, fp, lr}
 8002eba:	f380 8809 	msr	PSP, r0
 8002ebe:	f3bf 8f6f 	isb	sy
 8002ec2:	f04f 0000 	mov.w	r0, #0
 8002ec6:	f380 8811 	msr	BASEPRI, r0
 8002eca:	4770      	bx	lr
 8002ecc:	f3af 8000 	nop.w

08002ed0 <pxCurrentTCBConst2>:
 8002ed0:	20002250 	andcs	r2, r0, r0, asr r2

08002ed4 <vPortEnterCritical>:
 8002ed4:	f04f 0350 	mov.w	r3, #80	; 0x50
 8002ed8:	b672      	cpsid	i
 8002eda:	f383 8811 	msr	BASEPRI, r3
 8002ede:	f3bf 8f6f 	isb	sy
 8002ee2:	f3bf 8f4f 	dsb	sy
 8002ee6:	b662      	cpsie	i
 8002ee8:	4a0b      	ldr	r2, [pc, #44]	; (8002f18 <vPortEnterCritical+0x44>)
 8002eea:	6813      	ldr	r3, [r2, #0]
 8002eec:	3301      	adds	r3, #1
 8002eee:	6013      	str	r3, [r2, #0]
 8002ef0:	2b01      	cmp	r3, #1
 8002ef2:	d000      	beq.n	8002ef6 <vPortEnterCritical+0x22>
 8002ef4:	4770      	bx	lr
 8002ef6:	4b09      	ldr	r3, [pc, #36]	; (8002f1c <vPortEnterCritical+0x48>)
 8002ef8:	681b      	ldr	r3, [r3, #0]
 8002efa:	f013 0fff 	tst.w	r3, #255	; 0xff
 8002efe:	d0f9      	beq.n	8002ef4 <vPortEnterCritical+0x20>
 8002f00:	f04f 0350 	mov.w	r3, #80	; 0x50
 8002f04:	b672      	cpsid	i
 8002f06:	f383 8811 	msr	BASEPRI, r3
 8002f0a:	f3bf 8f6f 	isb	sy
 8002f0e:	f3bf 8f4f 	dsb	sy
 8002f12:	b662      	cpsie	i
 8002f14:	e7fe      	b.n	8002f14 <vPortEnterCritical+0x40>
 8002f16:	bf00      	nop
 8002f18:	20000008 	andcs	r0, r0, r8
 8002f1c:	e000ed04 	and	lr, r0, r4, lsl #26

08002f20 <vPortExitCritical>:
 8002f20:	4b0a      	ldr	r3, [pc, #40]	; (8002f4c <vPortExitCritical+0x2c>)
 8002f22:	681b      	ldr	r3, [r3, #0]
 8002f24:	b953      	cbnz	r3, 8002f3c <vPortExitCritical+0x1c>
 8002f26:	f04f 0350 	mov.w	r3, #80	; 0x50
 8002f2a:	b672      	cpsid	i
 8002f2c:	f383 8811 	msr	BASEPRI, r3
 8002f30:	f3bf 8f6f 	isb	sy
 8002f34:	f3bf 8f4f 	dsb	sy
 8002f38:	b662      	cpsie	i
 8002f3a:	e7fe      	b.n	8002f3a <vPortExitCritical+0x1a>
 8002f3c:	3b01      	subs	r3, #1
 8002f3e:	4a03      	ldr	r2, [pc, #12]	; (8002f4c <vPortExitCritical+0x2c>)
 8002f40:	6013      	str	r3, [r2, #0]
 8002f42:	b90b      	cbnz	r3, 8002f48 <vPortExitCritical+0x28>
 8002f44:	f383 8811 	msr	BASEPRI, r3
 8002f48:	4770      	bx	lr
 8002f4a:	bf00      	nop
 8002f4c:	20000008 	andcs	r0, r0, r8

08002f50 <PendSV_Handler>:
 8002f50:	f3ef 8009 	mrs	r0, PSP
 8002f54:	f3bf 8f6f 	isb	sy
 8002f58:	4b15      	ldr	r3, [pc, #84]	; (8002fb0 <pxCurrentTCBConst>)
 8002f5a:	681a      	ldr	r2, [r3, #0]
 8002f5c:	f01e 0f10 	tst.w	lr, #16
 8002f60:	bf08      	it	eq
 8002f62:	ed20 8a10 	vstmdbeq	r0!, {s16-s31}
 8002f66:	e920 4ff0 	stmdb	r0!, {r4, r5, r6, r7, r8, r9, sl, fp, lr}
 8002f6a:	6010      	str	r0, [r2, #0]
 8002f6c:	e92d 0009 	stmdb	sp!, {r0, r3}
 8002f70:	f04f 0050 	mov.w	r0, #80	; 0x50
 8002f74:	b672      	cpsid	i
 8002f76:	f380 8811 	msr	BASEPRI, r0
 8002f7a:	f3bf 8f4f 	dsb	sy
 8002f7e:	f3bf 8f6f 	isb	sy
 8002f82:	b662      	cpsie	i
 8002f84:	f7ff feb4 	bl	8002cf0 <vTaskSwitchContext>
 8002f88:	f04f 0000 	mov.w	r0, #0
 8002f8c:	f380 8811 	msr	BASEPRI, r0
 8002f90:	bc09      	pop	{r0, r3}
 8002f92:	6819      	ldr	r1, [r3, #0]
 8002f94:	6808      	ldr	r0, [r1, #0]
 8002f96:	e8b0 4ff0 	ldmia.w	r0!, {r4, r5, r6, r7, r8, r9, sl, fp, lr}
 8002f9a:	f01e 0f10 	tst.w	lr, #16
 8002f9e:	bf08      	it	eq
 8002fa0:	ecb0 8a10 	vldmiaeq	r0!, {s16-s31}
 8002fa4:	f380 8809 	msr	PSP, r0
 8002fa8:	f3bf 8f6f 	isb	sy
 8002fac:	4770      	bx	lr
 8002fae:	bf00      	nop

08002fb0 <pxCurrentTCBConst>:
 8002fb0:	20002250 	andcs	r2, r0, r0, asr r2

08002fb4 <SysTick_Handler>:
 8002fb4:	b508      	push	{r3, lr}
 8002fb6:	f04f 0350 	mov.w	r3, #80	; 0x50
 8002fba:	b672      	cpsid	i
 8002fbc:	f383 8811 	msr	BASEPRI, r3
 8002fc0:	f3bf 8f6f 	isb	sy
 8002fc4:	f3bf 8f4f 	dsb	sy
 8002fc8:	b662      	cpsie	i
 8002fca:	f7ff fd5b 	bl	8002a84 <xTaskIncrementTick>
 8002fce:	b118      	cbz	r0, 8002fd8 <SysTick_Handler+0x24>
 8002fd0:	4b03      	ldr	r3, [pc, #12]	; (8002fe0 <SysTick_Handler+0x2c>)
 8002fd2:	f04f 5280 	mov.w	r2, #268435456	; 0x10000000
 8002fd6:	601a      	str	r2, [r3, #0]
 8002fd8:	2300      	movs	r3, #0
 8002fda:	f383 8811 	msr	BASEPRI, r3
 8002fde:	bd08      	pop	{r3, pc}
 8002fe0:	e000ed04 	and	lr, r0, r4, lsl #26

08002fe4 <vPortSetupTimerInterrupt>:
 8002fe4:	4a08      	ldr	r2, [pc, #32]	; (8003008 <vPortSetupTimerInterrupt+0x24>)
 8002fe6:	2300      	movs	r3, #0
 8002fe8:	6013      	str	r3, [r2, #0]
 8002fea:	4908      	ldr	r1, [pc, #32]	; (800300c <vPortSetupTimerInterrupt+0x28>)
 8002fec:	600b      	str	r3, [r1, #0]
 8002fee:	4b08      	ldr	r3, [pc, #32]	; (8003010 <vPortSetupTimerInterrupt+0x2c>)
 8002ff0:	681b      	ldr	r3, [r3, #0]
 8002ff2:	4908      	ldr	r1, [pc, #32]	; (8003014 <vPortSetupTimerInterrupt+0x30>)
 8002ff4:	fba1 1303 	umull	r1, r3, r1, r3
 8002ff8:	099b      	lsrs	r3, r3, #6
 8002ffa:	3b01      	subs	r3, #1
 8002ffc:	4906      	ldr	r1, [pc, #24]	; (8003018 <vPortSetupTimerInterrupt+0x34>)
 8002ffe:	600b      	str	r3, [r1, #0]
 8003000:	2307      	movs	r3, #7
 8003002:	6013      	str	r3, [r2, #0]
 8003004:	4770      	bx	lr
 8003006:	bf00      	nop
 8003008:	e000e010 	and	lr, r0, r0, lsl r0
 800300c:	e000e018 	and	lr, r0, r8, lsl r0
 8003010:	20000004 	andcs	r0, r0, r4
 8003014:	10624dd3 	ldrdne	r4, [r2], #-211	; 0xffffff2d	; <UNPREDICTABLE>
 8003018:	e000e014 	and	lr, r0, r4, lsl r0

0800301c <xPortStartScheduler>:
 800301c:	b510      	push	{r4, lr}
 800301e:	b082      	sub	sp, #8
 8003020:	4b2c      	ldr	r3, [pc, #176]	; (80030d4 <xPortStartScheduler+0xb8>)
 8003022:	781a      	ldrb	r2, [r3, #0]
 8003024:	b2d2      	uxtb	r2, r2
 8003026:	9201      	str	r2, [sp, #4]
 8003028:	22ff      	movs	r2, #255	; 0xff
 800302a:	701a      	strb	r2, [r3, #0]
 800302c:	781b      	ldrb	r3, [r3, #0]
 800302e:	b2db      	uxtb	r3, r3
 8003030:	f88d 3003 	strb.w	r3, [sp, #3]
 8003034:	f89d 3003 	ldrb.w	r3, [sp, #3]
 8003038:	f003 0350 	and.w	r3, r3, #80	; 0x50
 800303c:	4a26      	ldr	r2, [pc, #152]	; (80030d8 <xPortStartScheduler+0xbc>)
 800303e:	7013      	strb	r3, [r2, #0]
 8003040:	4b26      	ldr	r3, [pc, #152]	; (80030dc <xPortStartScheduler+0xc0>)
 8003042:	2207      	movs	r2, #7
 8003044:	601a      	str	r2, [r3, #0]
 8003046:	f89d 3003 	ldrb.w	r3, [sp, #3]
 800304a:	f013 0f80 	tst.w	r3, #128	; 0x80
 800304e:	d00a      	beq.n	8003066 <xPortStartScheduler+0x4a>
 8003050:	4a22      	ldr	r2, [pc, #136]	; (80030dc <xPortStartScheduler+0xc0>)
 8003052:	6813      	ldr	r3, [r2, #0]
 8003054:	3b01      	subs	r3, #1
 8003056:	6013      	str	r3, [r2, #0]
 8003058:	f89d 3003 	ldrb.w	r3, [sp, #3]
 800305c:	005b      	lsls	r3, r3, #1
 800305e:	b2db      	uxtb	r3, r3
 8003060:	f88d 3003 	strb.w	r3, [sp, #3]
 8003064:	e7ef      	b.n	8003046 <xPortStartScheduler+0x2a>
 8003066:	4b1d      	ldr	r3, [pc, #116]	; (80030dc <xPortStartScheduler+0xc0>)
 8003068:	681b      	ldr	r3, [r3, #0]
 800306a:	2b03      	cmp	r3, #3
 800306c:	d00a      	beq.n	8003084 <xPortStartScheduler+0x68>
 800306e:	f04f 0350 	mov.w	r3, #80	; 0x50
 8003072:	b672      	cpsid	i
 8003074:	f383 8811 	msr	BASEPRI, r3
 8003078:	f3bf 8f6f 	isb	sy
 800307c:	f3bf 8f4f 	dsb	sy
 8003080:	b662      	cpsie	i
 8003082:	e7fe      	b.n	8003082 <xPortStartScheduler+0x66>
 8003084:	021b      	lsls	r3, r3, #8
 8003086:	f403 63e0 	and.w	r3, r3, #1792	; 0x700
 800308a:	4a14      	ldr	r2, [pc, #80]	; (80030dc <xPortStartScheduler+0xc0>)
 800308c:	6013      	str	r3, [r2, #0]
 800308e:	9b01      	ldr	r3, [sp, #4]
 8003090:	b2db      	uxtb	r3, r3
 8003092:	4a10      	ldr	r2, [pc, #64]	; (80030d4 <xPortStartScheduler+0xb8>)
 8003094:	7013      	strb	r3, [r2, #0]
 8003096:	4b12      	ldr	r3, [pc, #72]	; (80030e0 <xPortStartScheduler+0xc4>)
 8003098:	681a      	ldr	r2, [r3, #0]
 800309a:	f442 0270 	orr.w	r2, r2, #15728640	; 0xf00000
 800309e:	601a      	str	r2, [r3, #0]
 80030a0:	681a      	ldr	r2, [r3, #0]
 80030a2:	f042 4270 	orr.w	r2, r2, #4026531840	; 0xf0000000
 80030a6:	601a      	str	r2, [r3, #0]
 80030a8:	f7ff ff9c 	bl	8002fe4 <vPortSetupTimerInterrupt>
 80030ac:	2400      	movs	r4, #0
 80030ae:	4b0d      	ldr	r3, [pc, #52]	; (80030e4 <xPortStartScheduler+0xc8>)
 80030b0:	601c      	str	r4, [r3, #0]
 80030b2:	f7ff fedd 	bl	8002e70 <vPortEnableVFP>
 80030b6:	4a0c      	ldr	r2, [pc, #48]	; (80030e8 <xPortStartScheduler+0xcc>)
 80030b8:	6813      	ldr	r3, [r2, #0]
 80030ba:	f043 4340 	orr.w	r3, r3, #3221225472	; 0xc0000000
 80030be:	6013      	str	r3, [r2, #0]
 80030c0:	f7ff fec2 	bl	8002e48 <prvPortStartFirstTask>
 80030c4:	f7ff fe14 	bl	8002cf0 <vTaskSwitchContext>
 80030c8:	f7ff fe9a 	bl	8002e00 <prvTaskExitError>
 80030cc:	4620      	mov	r0, r4
 80030ce:	b002      	add	sp, #8
 80030d0:	bd10      	pop	{r4, pc}
 80030d2:	bf00      	nop
 80030d4:	e000e400 	and	lr, r0, r0, lsl #8
 80030d8:	200025cc 	andcs	r2, r0, ip, asr #11
 80030dc:	200025d0 	ldrdcs	r2, [r0], -r0
 80030e0:	e000ed20 	and	lr, r0, r0, lsr #26
 80030e4:	20000008 	andcs	r0, r0, r8
 80030e8:	e000ef34 	and	lr, r0, r4, lsr pc

080030ec <Reset_Handler>:
 80030ec:	f8df d034 	ldr.w	sp, [pc, #52]	; 8003124 <LoopFillZerobss+0x14>
 80030f0:	2100      	movs	r1, #0
 80030f2:	e003      	b.n	80030fc <LoopCopyDataInit>

080030f4 <CopyDataInit>:
 80030f4:	4b0c      	ldr	r3, [pc, #48]	; (8003128 <LoopFillZerobss+0x18>)
 80030f6:	585b      	ldr	r3, [r3, r1]
 80030f8:	5043      	str	r3, [r0, r1]
 80030fa:	3104      	adds	r1, #4

080030fc <LoopCopyDataInit>:
 80030fc:	480b      	ldr	r0, [pc, #44]	; (800312c <LoopFillZerobss+0x1c>)
 80030fe:	4b0c      	ldr	r3, [pc, #48]	; (8003130 <LoopFillZerobss+0x20>)
 8003100:	1842      	adds	r2, r0, r1
 8003102:	429a      	cmp	r2, r3
 8003104:	d3f6      	bcc.n	80030f4 <CopyDataInit>
 8003106:	4a0b      	ldr	r2, [pc, #44]	; (8003134 <LoopFillZerobss+0x24>)
 8003108:	e002      	b.n	8003110 <LoopFillZerobss>

0800310a <FillZerobss>:
 800310a:	2300      	movs	r3, #0
 800310c:	f842 3b04 	str.w	r3, [r2], #4

08003110 <LoopFillZerobss>:
 8003110:	4b09      	ldr	r3, [pc, #36]	; (8003138 <LoopFillZerobss+0x28>)
 8003112:	429a      	cmp	r2, r3
 8003114:	d3f9      	bcc.n	800310a <FillZerobss>
 8003116:	f7ff fa6b 	bl	80025f0 <SystemInit>
 800311a:	f000 f817 	bl	800314c <__libc_init_array>
 800311e:	f7fd fda3 	bl	8000c68 <main>
 8003122:	4770      	bx	lr
 8003124:	20080000 	andcs	r0, r8, r0
 8003128:	08004d18 	stmdaeq	r0, {r3, r4, r8, sl, fp, lr}
 800312c:	20000000 	andcs	r0, r0, r0
 8003130:	200001dc 	ldrdcs	r0, [r0], -ip
 8003134:	200001dc 	ldrdcs	r0, [r0], -ip
 8003138:	200026b4 			; <UNDEFINED> instruction: 0x200026b4

0800313c <ADC_IRQHandler>:
 800313c:	e7fe      	b.n	800313c <ADC_IRQHandler>
	...

08003140 <__errno>:
 8003140:	4b01      	ldr	r3, [pc, #4]	; (8003148 <__errno+0x8>)
 8003142:	6818      	ldr	r0, [r3, #0]
 8003144:	4770      	bx	lr
 8003146:	bf00      	nop
 8003148:	2000000c 	andcs	r0, r0, ip

0800314c <__libc_init_array>:
 800314c:	b570      	push	{r4, r5, r6, lr}
 800314e:	4d0d      	ldr	r5, [pc, #52]	; (8003184 <__libc_init_array+0x38>)
 8003150:	4c0d      	ldr	r4, [pc, #52]	; (8003188 <__libc_init_array+0x3c>)
 8003152:	1b64      	subs	r4, r4, r5
 8003154:	10a4      	asrs	r4, r4, #2
 8003156:	2600      	movs	r6, #0
 8003158:	42a6      	cmp	r6, r4
 800315a:	d109      	bne.n	8003170 <__libc_init_array+0x24>
 800315c:	4d0b      	ldr	r5, [pc, #44]	; (800318c <__libc_init_array+0x40>)
 800315e:	4c0c      	ldr	r4, [pc, #48]	; (8003190 <__libc_init_array+0x44>)
 8003160:	f001 fc8e 	bl	8004a80 <_init>
 8003164:	1b64      	subs	r4, r4, r5
 8003166:	10a4      	asrs	r4, r4, #2
 8003168:	2600      	movs	r6, #0
 800316a:	42a6      	cmp	r6, r4
 800316c:	d105      	bne.n	800317a <__libc_init_array+0x2e>
 800316e:	bd70      	pop	{r4, r5, r6, pc}
 8003170:	f855 3b04 	ldr.w	r3, [r5], #4
 8003174:	4798      	blx	r3
 8003176:	3601      	adds	r6, #1
 8003178:	e7ee      	b.n	8003158 <__libc_init_array+0xc>
 800317a:	f855 3b04 	ldr.w	r3, [r5], #4
 800317e:	4798      	blx	r3
 8003180:	3601      	adds	r6, #1
 8003182:	e7f2      	b.n	800316a <__libc_init_array+0x1e>
 8003184:	08004d10 	stmdaeq	r0, {r4, r8, sl, fp, lr}
 8003188:	08004d10 	stmdaeq	r0, {r4, r8, sl, fp, lr}
 800318c:	08004d10 	stmdaeq	r0, {r4, r8, sl, fp, lr}
 8003190:	08004d14 	stmdaeq	r0, {r2, r4, r8, sl, fp, lr}

08003194 <memcpy>:
 8003194:	440a      	add	r2, r1
 8003196:	4291      	cmp	r1, r2
 8003198:	f100 33ff 	add.w	r3, r0, #4294967295	; 0xffffffff
 800319c:	d100      	bne.n	80031a0 <memcpy+0xc>
 800319e:	4770      	bx	lr
 80031a0:	b510      	push	{r4, lr}
 80031a2:	f811 4b01 	ldrb.w	r4, [r1], #1
 80031a6:	f803 4f01 	strb.w	r4, [r3, #1]!
 80031aa:	4291      	cmp	r1, r2
 80031ac:	d1f9      	bne.n	80031a2 <memcpy+0xe>
 80031ae:	bd10      	pop	{r4, pc}

080031b0 <memset>:
 80031b0:	4402      	add	r2, r0
 80031b2:	4603      	mov	r3, r0
 80031b4:	4293      	cmp	r3, r2
 80031b6:	d100      	bne.n	80031ba <memset+0xa>
 80031b8:	4770      	bx	lr
 80031ba:	f803 1b01 	strb.w	r1, [r3], #1
 80031be:	e7f9      	b.n	80031b4 <memset+0x4>

080031c0 <__cvt>:
 80031c0:	b5f0      	push	{r4, r5, r6, r7, lr}
 80031c2:	ed2d 8b02 	vpush	{d8}
 80031c6:	eeb0 8b40 	vmov.f64	d8, d0
 80031ca:	b085      	sub	sp, #20
 80031cc:	4617      	mov	r7, r2
 80031ce:	9d0d      	ldr	r5, [sp, #52]	; 0x34
 80031d0:	9e0c      	ldr	r6, [sp, #48]	; 0x30
 80031d2:	ee18 2a90 	vmov	r2, s17
 80031d6:	f025 0520 	bic.w	r5, r5, #32
 80031da:	2a00      	cmp	r2, #0
 80031dc:	bfb6      	itet	lt
 80031de:	222d      	movlt	r2, #45	; 0x2d
 80031e0:	2200      	movge	r2, #0
 80031e2:	eeb1 8b40 	vneglt.f64	d8, d0
 80031e6:	2d46      	cmp	r5, #70	; 0x46
 80031e8:	460c      	mov	r4, r1
 80031ea:	701a      	strb	r2, [r3, #0]
 80031ec:	d004      	beq.n	80031f8 <__cvt+0x38>
 80031ee:	2d45      	cmp	r5, #69	; 0x45
 80031f0:	d100      	bne.n	80031f4 <__cvt+0x34>
 80031f2:	3401      	adds	r4, #1
 80031f4:	2102      	movs	r1, #2
 80031f6:	e000      	b.n	80031fa <__cvt+0x3a>
 80031f8:	2103      	movs	r1, #3
 80031fa:	ab03      	add	r3, sp, #12
 80031fc:	9301      	str	r3, [sp, #4]
 80031fe:	ab02      	add	r3, sp, #8
 8003200:	9300      	str	r3, [sp, #0]
 8003202:	4622      	mov	r2, r4
 8003204:	4633      	mov	r3, r6
 8003206:	eeb0 0b48 	vmov.f64	d0, d8
 800320a:	f000 fb79 	bl	8003900 <_dtoa_r>
 800320e:	2d47      	cmp	r5, #71	; 0x47
 8003210:	d101      	bne.n	8003216 <__cvt+0x56>
 8003212:	07fb      	lsls	r3, r7, #31
 8003214:	d51a      	bpl.n	800324c <__cvt+0x8c>
 8003216:	2d46      	cmp	r5, #70	; 0x46
 8003218:	eb00 0304 	add.w	r3, r0, r4
 800321c:	d10c      	bne.n	8003238 <__cvt+0x78>
 800321e:	7802      	ldrb	r2, [r0, #0]
 8003220:	2a30      	cmp	r2, #48	; 0x30
 8003222:	d107      	bne.n	8003234 <__cvt+0x74>
 8003224:	eeb5 8b40 	vcmp.f64	d8, #0.0
 8003228:	eef1 fa10 	vmrs	APSR_nzcv, fpscr
 800322c:	bf1c      	itt	ne
 800322e:	f1c4 0401 	rsbne	r4, r4, #1
 8003232:	6034      	strne	r4, [r6, #0]
 8003234:	6832      	ldr	r2, [r6, #0]
 8003236:	4413      	add	r3, r2
 8003238:	eeb5 8b40 	vcmp.f64	d8, #0.0
 800323c:	eef1 fa10 	vmrs	APSR_nzcv, fpscr
 8003240:	bf08      	it	eq
 8003242:	9303      	streq	r3, [sp, #12]
 8003244:	2130      	movs	r1, #48	; 0x30
 8003246:	9a03      	ldr	r2, [sp, #12]
 8003248:	429a      	cmp	r2, r3
 800324a:	d307      	bcc.n	800325c <__cvt+0x9c>
 800324c:	9b03      	ldr	r3, [sp, #12]
 800324e:	9a0e      	ldr	r2, [sp, #56]	; 0x38
 8003250:	1a1b      	subs	r3, r3, r0
 8003252:	6013      	str	r3, [r2, #0]
 8003254:	b005      	add	sp, #20
 8003256:	ecbd 8b02 	vpop	{d8}
 800325a:	bdf0      	pop	{r4, r5, r6, r7, pc}
 800325c:	1c54      	adds	r4, r2, #1
 800325e:	9403      	str	r4, [sp, #12]
 8003260:	7011      	strb	r1, [r2, #0]
 8003262:	e7f0      	b.n	8003246 <__cvt+0x86>

08003264 <__exponent>:
 8003264:	b5f7      	push	{r0, r1, r2, r4, r5, r6, r7, lr}
 8003266:	2900      	cmp	r1, #0
 8003268:	bfba      	itte	lt
 800326a:	4249      	neglt	r1, r1
 800326c:	232d      	movlt	r3, #45	; 0x2d
 800326e:	232b      	movge	r3, #43	; 0x2b
 8003270:	2909      	cmp	r1, #9
 8003272:	7002      	strb	r2, [r0, #0]
 8003274:	7043      	strb	r3, [r0, #1]
 8003276:	dd21      	ble.n	80032bc <__exponent+0x58>
 8003278:	f10d 0307 	add.w	r3, sp, #7
 800327c:	461f      	mov	r7, r3
 800327e:	260a      	movs	r6, #10
 8003280:	fb91 f2f6 	sdiv	r2, r1, r6
 8003284:	fb06 1412 	mls	r4, r6, r2, r1
 8003288:	3430      	adds	r4, #48	; 0x30
 800328a:	2963      	cmp	r1, #99	; 0x63
 800328c:	f103 35ff 	add.w	r5, r3, #4294967295	; 0xffffffff
 8003290:	f803 4c01 	strb.w	r4, [r3, #-1]
 8003294:	dc0a      	bgt.n	80032ac <__exponent+0x48>
 8003296:	3230      	adds	r2, #48	; 0x30
 8003298:	f805 2c01 	strb.w	r2, [r5, #-1]
 800329c:	3b02      	subs	r3, #2
 800329e:	1c82      	adds	r2, r0, #2
 80032a0:	42bb      	cmp	r3, r7
 80032a2:	4614      	mov	r4, r2
 80032a4:	d305      	bcc.n	80032b2 <__exponent+0x4e>
 80032a6:	1a20      	subs	r0, r4, r0
 80032a8:	b003      	add	sp, #12
 80032aa:	bdf0      	pop	{r4, r5, r6, r7, pc}
 80032ac:	462b      	mov	r3, r5
 80032ae:	4611      	mov	r1, r2
 80032b0:	e7e6      	b.n	8003280 <__exponent+0x1c>
 80032b2:	f813 1b01 	ldrb.w	r1, [r3], #1
 80032b6:	f802 1b01 	strb.w	r1, [r2], #1
 80032ba:	e7f1      	b.n	80032a0 <__exponent+0x3c>
 80032bc:	2330      	movs	r3, #48	; 0x30
 80032be:	4419      	add	r1, r3
 80032c0:	7083      	strb	r3, [r0, #2]
 80032c2:	1d04      	adds	r4, r0, #4
 80032c4:	70c1      	strb	r1, [r0, #3]
 80032c6:	e7ee      	b.n	80032a6 <__exponent+0x42>

080032c8 <_printf_float>:
 80032c8:	e92d 4ff0 	stmdb	sp!, {r4, r5, r6, r7, r8, r9, sl, fp, lr}
 80032cc:	b08d      	sub	sp, #52	; 0x34
 80032ce:	460c      	mov	r4, r1
 80032d0:	4616      	mov	r6, r2
 80032d2:	461f      	mov	r7, r3
 80032d4:	f8dd 8058 	ldr.w	r8, [sp, #88]	; 0x58
 80032d8:	4605      	mov	r5, r0
 80032da:	f001 f849 	bl	8004370 <_localeconv_r>
 80032de:	f8d0 b000 	ldr.w	fp, [r0]
 80032e2:	4658      	mov	r0, fp
 80032e4:	f7fc ffac 	bl	8000240 <strlen>
 80032e8:	2300      	movs	r3, #0
 80032ea:	930a      	str	r3, [sp, #40]	; 0x28
 80032ec:	f8d8 3000 	ldr.w	r3, [r8]
 80032f0:	9005      	str	r0, [sp, #20]
 80032f2:	3307      	adds	r3, #7
 80032f4:	f023 0307 	bic.w	r3, r3, #7
 80032f8:	f103 0108 	add.w	r1, r3, #8
 80032fc:	f894 9018 	ldrb.w	r9, [r4, #24]
 8003300:	6822      	ldr	r2, [r4, #0]
 8003302:	f8c8 1000 	str.w	r1, [r8]
 8003306:	e9d3 0100 	ldrd	r0, r1, [r3]
 800330a:	e9c4 0112 	strd	r0, r1, [r4, #72]	; 0x48
 800330e:	ed9f 7ba4 	vldr	d7, [pc, #656]	; 80035a0 <_printf_float+0x2d8>
 8003312:	ed94 0b12 	vldr	d0, [r4, #72]	; 0x48
 8003316:	eeb0 6bc0 	vabs.f64	d6, d0
 800331a:	eeb4 6b47 	vcmp.f64	d6, d7
 800331e:	eef1 fa10 	vmrs	APSR_nzcv, fpscr
 8003322:	dd24      	ble.n	800336e <_printf_float+0xa6>
 8003324:	eeb5 0bc0 	vcmpe.f64	d0, #0.0
 8003328:	eef1 fa10 	vmrs	APSR_nzcv, fpscr
 800332c:	d502      	bpl.n	8003334 <_printf_float+0x6c>
 800332e:	232d      	movs	r3, #45	; 0x2d
 8003330:	f884 3043 	strb.w	r3, [r4, #67]	; 0x43
 8003334:	499c      	ldr	r1, [pc, #624]	; (80035a8 <_printf_float+0x2e0>)
 8003336:	4b9d      	ldr	r3, [pc, #628]	; (80035ac <_printf_float+0x2e4>)
 8003338:	f1b9 0f47 	cmp.w	r9, #71	; 0x47
 800333c:	bf94      	ite	ls
 800333e:	4688      	movls	r8, r1
 8003340:	4698      	movhi	r8, r3
 8003342:	f022 0204 	bic.w	r2, r2, #4
 8003346:	2303      	movs	r3, #3
 8003348:	6123      	str	r3, [r4, #16]
 800334a:	6022      	str	r2, [r4, #0]
 800334c:	f04f 0a00 	mov.w	sl, #0
 8003350:	9700      	str	r7, [sp, #0]
 8003352:	4633      	mov	r3, r6
 8003354:	aa0b      	add	r2, sp, #44	; 0x2c
 8003356:	4621      	mov	r1, r4
 8003358:	4628      	mov	r0, r5
 800335a:	f000 f9d3 	bl	8003704 <_printf_common>
 800335e:	3001      	adds	r0, #1
 8003360:	f040 808a 	bne.w	8003478 <_printf_float+0x1b0>
 8003364:	f04f 30ff 	mov.w	r0, #4294967295	; 0xffffffff
 8003368:	b00d      	add	sp, #52	; 0x34
 800336a:	e8bd 8ff0 	ldmia.w	sp!, {r4, r5, r6, r7, r8, r9, sl, fp, pc}
 800336e:	eeb4 0b40 	vcmp.f64	d0, d0
 8003372:	eef1 fa10 	vmrs	APSR_nzcv, fpscr
 8003376:	d70a      	bvc.n	800338e <_printf_float+0xc6>
 8003378:	eeb5 0bc0 	vcmpe.f64	d0, #0.0
 800337c:	eef1 fa10 	vmrs	APSR_nzcv, fpscr
 8003380:	bf44      	itt	mi
 8003382:	232d      	movmi	r3, #45	; 0x2d
 8003384:	f884 3043 	strbmi.w	r3, [r4, #67]	; 0x43
 8003388:	4989      	ldr	r1, [pc, #548]	; (80035b0 <_printf_float+0x2e8>)
 800338a:	4b8a      	ldr	r3, [pc, #552]	; (80035b4 <_printf_float+0x2ec>)
 800338c:	e7d4      	b.n	8003338 <_printf_float+0x70>
 800338e:	6863      	ldr	r3, [r4, #4]
 8003390:	1c59      	adds	r1, r3, #1
 8003392:	f009 0adf 	and.w	sl, r9, #223	; 0xdf
 8003396:	d13c      	bne.n	8003412 <_printf_float+0x14a>
 8003398:	2306      	movs	r3, #6
 800339a:	6063      	str	r3, [r4, #4]
 800339c:	2300      	movs	r3, #0
 800339e:	9303      	str	r3, [sp, #12]
 80033a0:	ab0a      	add	r3, sp, #40	; 0x28
 80033a2:	f442 6280 	orr.w	r2, r2, #1024	; 0x400
 80033a6:	e9cd 9301 	strd	r9, r3, [sp, #4]
 80033aa:	ab09      	add	r3, sp, #36	; 0x24
 80033ac:	9300      	str	r3, [sp, #0]
 80033ae:	6861      	ldr	r1, [r4, #4]
 80033b0:	6022      	str	r2, [r4, #0]
 80033b2:	f10d 0323 	add.w	r3, sp, #35	; 0x23
 80033b6:	4628      	mov	r0, r5
 80033b8:	f7ff ff02 	bl	80031c0 <__cvt>
 80033bc:	f1ba 0f47 	cmp.w	sl, #71	; 0x47
 80033c0:	4680      	mov	r8, r0
 80033c2:	9909      	ldr	r1, [sp, #36]	; 0x24
 80033c4:	d108      	bne.n	80033d8 <_printf_float+0x110>
 80033c6:	1cc8      	adds	r0, r1, #3
 80033c8:	db02      	blt.n	80033d0 <_printf_float+0x108>
 80033ca:	6863      	ldr	r3, [r4, #4]
 80033cc:	4299      	cmp	r1, r3
 80033ce:	dd41      	ble.n	8003454 <_printf_float+0x18c>
 80033d0:	f1a9 0902 	sub.w	r9, r9, #2
 80033d4:	fa5f f989 	uxtb.w	r9, r9
 80033d8:	f1b9 0f65 	cmp.w	r9, #101	; 0x65
 80033dc:	d820      	bhi.n	8003420 <_printf_float+0x158>
 80033de:	3901      	subs	r1, #1
 80033e0:	464a      	mov	r2, r9
 80033e2:	f104 0050 	add.w	r0, r4, #80	; 0x50
 80033e6:	9109      	str	r1, [sp, #36]	; 0x24
 80033e8:	f7ff ff3c 	bl	8003264 <__exponent>
 80033ec:	9a0a      	ldr	r2, [sp, #40]	; 0x28
 80033ee:	1813      	adds	r3, r2, r0
 80033f0:	2a01      	cmp	r2, #1
 80033f2:	4682      	mov	sl, r0
 80033f4:	6123      	str	r3, [r4, #16]
 80033f6:	dc02      	bgt.n	80033fe <_printf_float+0x136>
 80033f8:	6822      	ldr	r2, [r4, #0]
 80033fa:	07d2      	lsls	r2, r2, #31
 80033fc:	d501      	bpl.n	8003402 <_printf_float+0x13a>
 80033fe:	3301      	adds	r3, #1
 8003400:	6123      	str	r3, [r4, #16]
 8003402:	f89d 3023 	ldrb.w	r3, [sp, #35]	; 0x23
 8003406:	2b00      	cmp	r3, #0
 8003408:	d0a2      	beq.n	8003350 <_printf_float+0x88>
 800340a:	232d      	movs	r3, #45	; 0x2d
 800340c:	f884 3043 	strb.w	r3, [r4, #67]	; 0x43
 8003410:	e79e      	b.n	8003350 <_printf_float+0x88>
 8003412:	f1ba 0f47 	cmp.w	sl, #71	; 0x47
 8003416:	d1c1      	bne.n	800339c <_printf_float+0xd4>
 8003418:	2b00      	cmp	r3, #0
 800341a:	d1bf      	bne.n	800339c <_printf_float+0xd4>
 800341c:	2301      	movs	r3, #1
 800341e:	e7bc      	b.n	800339a <_printf_float+0xd2>
 8003420:	f1b9 0f66 	cmp.w	r9, #102	; 0x66
 8003424:	d118      	bne.n	8003458 <_printf_float+0x190>
 8003426:	2900      	cmp	r1, #0
 8003428:	6863      	ldr	r3, [r4, #4]
 800342a:	dd0b      	ble.n	8003444 <_printf_float+0x17c>
 800342c:	6121      	str	r1, [r4, #16]
 800342e:	b913      	cbnz	r3, 8003436 <_printf_float+0x16e>
 8003430:	6822      	ldr	r2, [r4, #0]
 8003432:	07d0      	lsls	r0, r2, #31
 8003434:	d502      	bpl.n	800343c <_printf_float+0x174>
 8003436:	3301      	adds	r3, #1
 8003438:	440b      	add	r3, r1
 800343a:	6123      	str	r3, [r4, #16]
 800343c:	65a1      	str	r1, [r4, #88]	; 0x58
 800343e:	f04f 0a00 	mov.w	sl, #0
 8003442:	e7de      	b.n	8003402 <_printf_float+0x13a>
 8003444:	b913      	cbnz	r3, 800344c <_printf_float+0x184>
 8003446:	6822      	ldr	r2, [r4, #0]
 8003448:	07d2      	lsls	r2, r2, #31
 800344a:	d501      	bpl.n	8003450 <_printf_float+0x188>
 800344c:	3302      	adds	r3, #2
 800344e:	e7f4      	b.n	800343a <_printf_float+0x172>
 8003450:	2301      	movs	r3, #1
 8003452:	e7f2      	b.n	800343a <_printf_float+0x172>
 8003454:	f04f 0967 	mov.w	r9, #103	; 0x67
 8003458:	9b0a      	ldr	r3, [sp, #40]	; 0x28
 800345a:	4299      	cmp	r1, r3
 800345c:	db05      	blt.n	800346a <_printf_float+0x1a2>
 800345e:	6823      	ldr	r3, [r4, #0]
 8003460:	6121      	str	r1, [r4, #16]
 8003462:	07d8      	lsls	r0, r3, #31
 8003464:	d5ea      	bpl.n	800343c <_printf_float+0x174>
 8003466:	1c4b      	adds	r3, r1, #1
 8003468:	e7e7      	b.n	800343a <_printf_float+0x172>
 800346a:	2900      	cmp	r1, #0
 800346c:	bfd4      	ite	le
 800346e:	f1c1 0202 	rsble	r2, r1, #2
 8003472:	2201      	movgt	r2, #1
 8003474:	4413      	add	r3, r2
 8003476:	e7e0      	b.n	800343a <_printf_float+0x172>
 8003478:	6823      	ldr	r3, [r4, #0]
 800347a:	055a      	lsls	r2, r3, #21
 800347c:	d407      	bmi.n	800348e <_printf_float+0x1c6>
 800347e:	6923      	ldr	r3, [r4, #16]
 8003480:	4642      	mov	r2, r8
 8003482:	4631      	mov	r1, r6
 8003484:	4628      	mov	r0, r5
 8003486:	47b8      	blx	r7
 8003488:	3001      	adds	r0, #1
 800348a:	d12a      	bne.n	80034e2 <_printf_float+0x21a>
 800348c:	e76a      	b.n	8003364 <_printf_float+0x9c>
 800348e:	f1b9 0f65 	cmp.w	r9, #101	; 0x65
 8003492:	f240 80e2 	bls.w	800365a <_printf_float+0x392>
 8003496:	ed94 7b12 	vldr	d7, [r4, #72]	; 0x48
 800349a:	eeb5 7b40 	vcmp.f64	d7, #0.0
 800349e:	eef1 fa10 	vmrs	APSR_nzcv, fpscr
 80034a2:	d133      	bne.n	800350c <_printf_float+0x244>
 80034a4:	2301      	movs	r3, #1
 80034a6:	4a44      	ldr	r2, [pc, #272]	; (80035b8 <_printf_float+0x2f0>)
 80034a8:	4631      	mov	r1, r6
 80034aa:	4628      	mov	r0, r5
 80034ac:	47b8      	blx	r7
 80034ae:	3001      	adds	r0, #1
 80034b0:	f43f af58 	beq.w	8003364 <_printf_float+0x9c>
 80034b4:	e9dd 2309 	ldrd	r2, r3, [sp, #36]	; 0x24
 80034b8:	429a      	cmp	r2, r3
 80034ba:	db02      	blt.n	80034c2 <_printf_float+0x1fa>
 80034bc:	6823      	ldr	r3, [r4, #0]
 80034be:	07d8      	lsls	r0, r3, #31
 80034c0:	d50f      	bpl.n	80034e2 <_printf_float+0x21a>
 80034c2:	9b05      	ldr	r3, [sp, #20]
 80034c4:	465a      	mov	r2, fp
 80034c6:	4631      	mov	r1, r6
 80034c8:	4628      	mov	r0, r5
 80034ca:	47b8      	blx	r7
 80034cc:	3001      	adds	r0, #1
 80034ce:	f43f af49 	beq.w	8003364 <_printf_float+0x9c>
 80034d2:	f04f 0800 	mov.w	r8, #0
 80034d6:	f104 091a 	add.w	r9, r4, #26
 80034da:	9b0a      	ldr	r3, [sp, #40]	; 0x28
 80034dc:	3b01      	subs	r3, #1
 80034de:	4543      	cmp	r3, r8
 80034e0:	dc09      	bgt.n	80034f6 <_printf_float+0x22e>
 80034e2:	6823      	ldr	r3, [r4, #0]
 80034e4:	079b      	lsls	r3, r3, #30
 80034e6:	f100 8108 	bmi.w	80036fa <_printf_float+0x432>
 80034ea:	68e0      	ldr	r0, [r4, #12]
 80034ec:	9b0b      	ldr	r3, [sp, #44]	; 0x2c
 80034ee:	4298      	cmp	r0, r3
 80034f0:	bfb8      	it	lt
 80034f2:	4618      	movlt	r0, r3
 80034f4:	e738      	b.n	8003368 <_printf_float+0xa0>
 80034f6:	2301      	movs	r3, #1
 80034f8:	464a      	mov	r2, r9
 80034fa:	4631      	mov	r1, r6
 80034fc:	4628      	mov	r0, r5
 80034fe:	47b8      	blx	r7
 8003500:	3001      	adds	r0, #1
 8003502:	f43f af2f 	beq.w	8003364 <_printf_float+0x9c>
 8003506:	f108 0801 	add.w	r8, r8, #1
 800350a:	e7e6      	b.n	80034da <_printf_float+0x212>
 800350c:	9b09      	ldr	r3, [sp, #36]	; 0x24
 800350e:	2b00      	cmp	r3, #0
 8003510:	dc2b      	bgt.n	800356a <_printf_float+0x2a2>
 8003512:	2301      	movs	r3, #1
 8003514:	4a28      	ldr	r2, [pc, #160]	; (80035b8 <_printf_float+0x2f0>)
 8003516:	4631      	mov	r1, r6
 8003518:	4628      	mov	r0, r5
 800351a:	47b8      	blx	r7
 800351c:	3001      	adds	r0, #1
 800351e:	f43f af21 	beq.w	8003364 <_printf_float+0x9c>
 8003522:	e9dd 2309 	ldrd	r2, r3, [sp, #36]	; 0x24
 8003526:	4313      	orrs	r3, r2
 8003528:	d102      	bne.n	8003530 <_printf_float+0x268>
 800352a:	6823      	ldr	r3, [r4, #0]
 800352c:	07d9      	lsls	r1, r3, #31
 800352e:	d5d8      	bpl.n	80034e2 <_printf_float+0x21a>
 8003530:	9b05      	ldr	r3, [sp, #20]
 8003532:	465a      	mov	r2, fp
 8003534:	4631      	mov	r1, r6
 8003536:	4628      	mov	r0, r5
 8003538:	47b8      	blx	r7
 800353a:	3001      	adds	r0, #1
 800353c:	f43f af12 	beq.w	8003364 <_printf_float+0x9c>
 8003540:	f04f 0900 	mov.w	r9, #0
 8003544:	f104 0a1a 	add.w	sl, r4, #26
 8003548:	9b09      	ldr	r3, [sp, #36]	; 0x24
 800354a:	425b      	negs	r3, r3
 800354c:	454b      	cmp	r3, r9
 800354e:	dc01      	bgt.n	8003554 <_printf_float+0x28c>
 8003550:	9b0a      	ldr	r3, [sp, #40]	; 0x28
 8003552:	e795      	b.n	8003480 <_printf_float+0x1b8>
 8003554:	2301      	movs	r3, #1
 8003556:	4652      	mov	r2, sl
 8003558:	4631      	mov	r1, r6
 800355a:	4628      	mov	r0, r5
 800355c:	47b8      	blx	r7
 800355e:	3001      	adds	r0, #1
 8003560:	f43f af00 	beq.w	8003364 <_printf_float+0x9c>
 8003564:	f109 0901 	add.w	r9, r9, #1
 8003568:	e7ee      	b.n	8003548 <_printf_float+0x280>
 800356a:	9a0a      	ldr	r2, [sp, #40]	; 0x28
 800356c:	6da3      	ldr	r3, [r4, #88]	; 0x58
 800356e:	429a      	cmp	r2, r3
 8003570:	bfa8      	it	ge
 8003572:	461a      	movge	r2, r3
 8003574:	2a00      	cmp	r2, #0
 8003576:	4691      	mov	r9, r2
 8003578:	dd07      	ble.n	800358a <_printf_float+0x2c2>
 800357a:	4613      	mov	r3, r2
 800357c:	4631      	mov	r1, r6
 800357e:	4642      	mov	r2, r8
 8003580:	4628      	mov	r0, r5
 8003582:	47b8      	blx	r7
 8003584:	3001      	adds	r0, #1
 8003586:	f43f aeed 	beq.w	8003364 <_printf_float+0x9c>
 800358a:	2300      	movs	r3, #0
 800358c:	9306      	str	r3, [sp, #24]
 800358e:	f104 031a 	add.w	r3, r4, #26
 8003592:	ea29 79e9 	bic.w	r9, r9, r9, asr #31
 8003596:	9307      	str	r3, [sp, #28]
 8003598:	e01b      	b.n	80035d2 <_printf_float+0x30a>
 800359a:	bf00      	nop
 800359c:	f3af 8000 	nop.w
 80035a0:	ffffffff 			; <UNDEFINED> instruction: 0xffffffff
 80035a4:	7fefffff 	svcvc	0x00efffff
 80035a8:	08004ae0 	stmdaeq	r0, {r5, r6, r7, r9, fp, lr}
 80035ac:	08004ae4 	stmdaeq	r0, {r2, r5, r6, r7, r9, fp, lr}
 80035b0:	08004ae8 	stmdaeq	r0, {r3, r5, r6, r7, r9, fp, lr}
 80035b4:	08004aec 	stmdaeq	r0, {r2, r3, r5, r6, r7, r9, fp, lr}
 80035b8:	08004af0 	stmdaeq	r0, {r4, r5, r6, r7, r9, fp, lr}
 80035bc:	2301      	movs	r3, #1
 80035be:	9a07      	ldr	r2, [sp, #28]
 80035c0:	4631      	mov	r1, r6
 80035c2:	4628      	mov	r0, r5
 80035c4:	47b8      	blx	r7
 80035c6:	3001      	adds	r0, #1
 80035c8:	f43f aecc 	beq.w	8003364 <_printf_float+0x9c>
 80035cc:	9b06      	ldr	r3, [sp, #24]
 80035ce:	3301      	adds	r3, #1
 80035d0:	9306      	str	r3, [sp, #24]
 80035d2:	f8d4 a058 	ldr.w	sl, [r4, #88]	; 0x58
 80035d6:	9a06      	ldr	r2, [sp, #24]
 80035d8:	ebaa 0309 	sub.w	r3, sl, r9
 80035dc:	4293      	cmp	r3, r2
 80035de:	dced      	bgt.n	80035bc <_printf_float+0x2f4>
 80035e0:	e9dd 2309 	ldrd	r2, r3, [sp, #36]	; 0x24
 80035e4:	429a      	cmp	r2, r3
 80035e6:	db1b      	blt.n	8003620 <_printf_float+0x358>
 80035e8:	6823      	ldr	r3, [r4, #0]
 80035ea:	07da      	lsls	r2, r3, #31
 80035ec:	d418      	bmi.n	8003620 <_printf_float+0x358>
 80035ee:	e9dd 2309 	ldrd	r2, r3, [sp, #36]	; 0x24
 80035f2:	4592      	cmp	sl, r2
 80035f4:	db1c      	blt.n	8003630 <_printf_float+0x368>
 80035f6:	eba3 090a 	sub.w	r9, r3, sl
 80035fa:	f1b9 0f00 	cmp.w	r9, #0
 80035fe:	dd08      	ble.n	8003612 <_printf_float+0x34a>
 8003600:	464b      	mov	r3, r9
 8003602:	eb08 020a 	add.w	r2, r8, sl
 8003606:	4631      	mov	r1, r6
 8003608:	4628      	mov	r0, r5
 800360a:	47b8      	blx	r7
 800360c:	3001      	adds	r0, #1
 800360e:	f43f aea9 	beq.w	8003364 <_printf_float+0x9c>
 8003612:	f04f 0800 	mov.w	r8, #0
 8003616:	ea29 79e9 	bic.w	r9, r9, r9, asr #31
 800361a:	f104 0a1a 	add.w	sl, r4, #26
 800361e:	e014      	b.n	800364a <_printf_float+0x382>
 8003620:	9b05      	ldr	r3, [sp, #20]
 8003622:	465a      	mov	r2, fp
 8003624:	4631      	mov	r1, r6
 8003626:	4628      	mov	r0, r5
 8003628:	47b8      	blx	r7
 800362a:	3001      	adds	r0, #1
 800362c:	d1df      	bne.n	80035ee <_printf_float+0x326>
 800362e:	e699      	b.n	8003364 <_printf_float+0x9c>
 8003630:	eba3 0902 	sub.w	r9, r3, r2
 8003634:	e7e1      	b.n	80035fa <_printf_float+0x332>
 8003636:	2301      	movs	r3, #1
 8003638:	4652      	mov	r2, sl
 800363a:	4631      	mov	r1, r6
 800363c:	4628      	mov	r0, r5
 800363e:	47b8      	blx	r7
 8003640:	3001      	adds	r0, #1
 8003642:	f43f ae8f 	beq.w	8003364 <_printf_float+0x9c>
 8003646:	f108 0801 	add.w	r8, r8, #1
 800364a:	e9dd 2309 	ldrd	r2, r3, [sp, #36]	; 0x24
 800364e:	1a9b      	subs	r3, r3, r2
 8003650:	eba3 0309 	sub.w	r3, r3, r9
 8003654:	4543      	cmp	r3, r8
 8003656:	dcee      	bgt.n	8003636 <_printf_float+0x36e>
 8003658:	e743      	b.n	80034e2 <_printf_float+0x21a>
 800365a:	9a0a      	ldr	r2, [sp, #40]	; 0x28
 800365c:	2a01      	cmp	r2, #1
 800365e:	dc01      	bgt.n	8003664 <_printf_float+0x39c>
 8003660:	07db      	lsls	r3, r3, #31
 8003662:	d537      	bpl.n	80036d4 <_printf_float+0x40c>
 8003664:	2301      	movs	r3, #1
 8003666:	4642      	mov	r2, r8
 8003668:	4631      	mov	r1, r6
 800366a:	4628      	mov	r0, r5
 800366c:	47b8      	blx	r7
 800366e:	3001      	adds	r0, #1
 8003670:	f43f ae78 	beq.w	8003364 <_printf_float+0x9c>
 8003674:	9b05      	ldr	r3, [sp, #20]
 8003676:	465a      	mov	r2, fp
 8003678:	4631      	mov	r1, r6
 800367a:	4628      	mov	r0, r5
 800367c:	47b8      	blx	r7
 800367e:	3001      	adds	r0, #1
 8003680:	f43f ae70 	beq.w	8003364 <_printf_float+0x9c>
 8003684:	ed94 7b12 	vldr	d7, [r4, #72]	; 0x48
 8003688:	eeb5 7b40 	vcmp.f64	d7, #0.0
 800368c:	eef1 fa10 	vmrs	APSR_nzcv, fpscr
 8003690:	d01b      	beq.n	80036ca <_printf_float+0x402>
 8003692:	9b0a      	ldr	r3, [sp, #40]	; 0x28
 8003694:	f108 0201 	add.w	r2, r8, #1
 8003698:	3b01      	subs	r3, #1
 800369a:	4631      	mov	r1, r6
 800369c:	4628      	mov	r0, r5
 800369e:	47b8      	blx	r7
 80036a0:	3001      	adds	r0, #1
 80036a2:	d10e      	bne.n	80036c2 <_printf_float+0x3fa>
 80036a4:	e65e      	b.n	8003364 <_printf_float+0x9c>
 80036a6:	2301      	movs	r3, #1
 80036a8:	464a      	mov	r2, r9
 80036aa:	4631      	mov	r1, r6
 80036ac:	4628      	mov	r0, r5
 80036ae:	47b8      	blx	r7
 80036b0:	3001      	adds	r0, #1
 80036b2:	f43f ae57 	beq.w	8003364 <_printf_float+0x9c>
 80036b6:	f108 0801 	add.w	r8, r8, #1
 80036ba:	9b0a      	ldr	r3, [sp, #40]	; 0x28
 80036bc:	3b01      	subs	r3, #1
 80036be:	4543      	cmp	r3, r8
 80036c0:	dcf1      	bgt.n	80036a6 <_printf_float+0x3de>
 80036c2:	4653      	mov	r3, sl
 80036c4:	f104 0250 	add.w	r2, r4, #80	; 0x50
 80036c8:	e6db      	b.n	8003482 <_printf_float+0x1ba>
 80036ca:	f04f 0800 	mov.w	r8, #0
 80036ce:	f104 091a 	add.w	r9, r4, #26
 80036d2:	e7f2      	b.n	80036ba <_printf_float+0x3f2>
 80036d4:	2301      	movs	r3, #1
 80036d6:	4642      	mov	r2, r8
 80036d8:	e7df      	b.n	800369a <_printf_float+0x3d2>
 80036da:	2301      	movs	r3, #1
 80036dc:	464a      	mov	r2, r9
 80036de:	4631      	mov	r1, r6
 80036e0:	4628      	mov	r0, r5
 80036e2:	47b8      	blx	r7
 80036e4:	3001      	adds	r0, #1
 80036e6:	f43f ae3d 	beq.w	8003364 <_printf_float+0x9c>
 80036ea:	f108 0801 	add.w	r8, r8, #1
 80036ee:	68e3      	ldr	r3, [r4, #12]
 80036f0:	9a0b      	ldr	r2, [sp, #44]	; 0x2c
 80036f2:	1a9b      	subs	r3, r3, r2
 80036f4:	4543      	cmp	r3, r8
 80036f6:	dcf0      	bgt.n	80036da <_printf_float+0x412>
